
bin/main.o:     file format elf64-x86-64

Contents of section .group:
 0000 01000000 43000000                    ....C...        
Contents of section .group:
 0000 01000000 44000000                    ....D...        
Contents of section .group:
 0000 01000000 45000000 47000000           ....E...G...    
Contents of section .group:
 0000 01000000 48000000                    ....H...        
Contents of section .group:
 0000 01000000 4a000000                    ....J...        
Contents of section .group:
 0000 01000000 4c000000                    ....L...        
Contents of section .group:
 0000 01000000 4e000000                    ....N...        
Contents of section .group:
 0000 01000000 50000000                    ....P...        
Contents of section .group:
 0000 01000000 52000000                    ....R...        
Contents of section .group:
 0000 01000000 54000000 56000000           ....T...V...    
Contents of section .group:
 0000 01000000 58000000                    ....X...        
Contents of section .group:
 0000 01000000 5a000000                    ....Z...        
Contents of section .group:
 0000 01000000 5c000000                    ....\...        
Contents of section .group:
 0000 01000000 5e000000                    ....^...        
Contents of section .group:
 0000 01000000 5f000000                    ...._...        
Contents of section .group:
 0000 01000000 60000000                    ....`...        
Contents of section .group:
 0000 01000000 62000000                    ....b...        
Contents of section .group:
 0000 01000000 64000000                    ....d...        
Contents of section .group:
 0000 01000000 66000000                    ....f...        
Contents of section .group:
 0000 01000000 67000000                    ....g...        
Contents of section .group:
 0000 01000000 69000000                    ....i...        
Contents of section .group:
 0000 01000000 6a000000                    ....j...        
Contents of section .group:
 0000 01000000 6c000000                    ....l...        
Contents of section .group:
 0000 01000000 6e000000                    ....n...        
Contents of section .group:
 0000 01000000 70000000                    ....p...        
Contents of section .group:
 0000 01000000 72000000                    ....r...        
Contents of section .group:
 0000 01000000 74000000                    ....t...        
Contents of section .group:
 0000 01000000 76000000                    ....v...        
Contents of section .group:
 0000 01000000 78000000                    ....x...        
Contents of section .group:
 0000 01000000 7a000000                    ....z...        
Contents of section .group:
 0000 01000000 7c000000                    ....|...        
Contents of section .group:
 0000 01000000 7e000000                    ....~...        
Contents of section .group:
 0000 01000000 80000000                    ........        
Contents of section .group:
 0000 01000000 82000000                    ........        
Contents of section .group:
 0000 01000000 83000000                    ........        
Contents of section .group:
 0000 01000000 85000000                    ........        
Contents of section .group:
 0000 01000000 87000000                    ........        
Contents of section .group:
 0000 01000000 89000000                    ........        
Contents of section .group:
 0000 01000000 8a000000                    ........        
Contents of section .group:
 0000 01000000 8c000000                    ........        
Contents of section .group:
 0000 01000000 8e000000                    ........        
Contents of section .group:
 0000 01000000 90000000                    ........        
Contents of section .group:
 0000 01000000 92000000                    ........        
Contents of section .group:
 0000 01000000 93000000                    ........        
Contents of section .group:
 0000 01000000 95000000                    ........        
Contents of section .group:
 0000 01000000 96000000                    ........        
Contents of section .group:
 0000 01000000 98000000                    ........        
Contents of section .group:
 0000 01000000 9a000000                    ........        
Contents of section .group:
 0000 01000000 9b000000                    ........        
Contents of section .group:
 0000 01000000 9d000000                    ........        
Contents of section .group:
 0000 01000000 9e000000                    ........        
Contents of section .group:
 0000 01000000 a0000000                    ........        
Contents of section .group:
 0000 01000000 a1000000                    ........        
Contents of section .group:
 0000 01000000 a3000000                    ........        
Contents of section .group:
 0000 01000000 a5000000                    ........        
Contents of section .group:
 0000 01000000 a6000000                    ........        
Contents of section .group:
 0000 01000000 a7000000                    ........        
Contents of section .group:
 0000 01000000 a8000000                    ........        
Contents of section .group:
 0000 01000000 aa000000                    ........        
Contents of section .group:
 0000 01000000 ac000000                    ........        
Contents of section .group:
 0000 01000000 ae000000                    ........        
Contents of section .text:
 0000 554889e5 41545348 83ec1048 897de848  UH..ATSH...H.}.H
 0010 8975e048 8b45e04c 8d605848 8b45e048  .u.H.E.L.`XH.E.H
 0020 8b18488b 45e0488d 5038488b 45e84889  ..H.E.H.P8H.E.H.
 0030 d64889c7 e8000000 00be0000 00004889  .H............H.
 0040 c7e80000 00004889 de4889c7 e8000000  ......H..H......
 0050 00be0000 00004889 c7e80000 00004c89  ......H.......L.
 0060 e64889c7 e8000000 00488b45 e84883c4  .H.......H.E.H..
 0070 105b415c 5dc35548 89e55348 81ecd801  .[A\].UH..SH....
 0080 00006448 8b042528 00000048 8945e831  ..dH..%(...H.E.1
 0090 c0488d85 2ffeffff 4889c7e8 00000000  .H../...H.......
 00a0 488d952f feffff48 8d8550ff ffffbe00  H../...H..P.....
 00b0 00000048 89c7e800 00000048 8d852efe  ...H.......H....
 00c0 ffff4889 c7e80000 0000488d 952efeff  ..H.......H.....
 00d0 ff488d85 d0feffff be000000 004889c7  .H...........H..
 00e0 e8000000 00488d85 2dfeffff 4889c7e8  .....H..-...H...
 00f0 00000000 488d952d feffff48 8d8530fe  ....H..-...H..0.
 0100 ffffbe00 00000048 89c7e800 00000048  .......H.......H
 0110 8d8d50ff ffff488d 95d0feff ff488db5  ..P...H......H..
 0120 30feffff 488d8550 feffff41 b9010000  0...H..P...A....
 0130 0041b800 00000048 89c7e800 00000048  .A.....H.......H
 0140 8d8530fe ffff4889 c7e80000 0000488d  ..0...H.......H.
 0150 852dfeff ff4889c7 e8000000 00488d85  .-...H.......H..
 0160 d0feffff 4889c7e8 00000000 488d852e  ....H.......H...
 0170 feffff48 89c7e800 00000048 8d8550ff  ...H.......H..P.
 0180 ffff4889 c7e80000 0000488d 852ffeff  ..H.......H../..
 0190 ff4889c7 e8000000 00488d85 50ffffff  .H.......H..P...
 01a0 4889c7e8 00000000 488d9550 feffff48  H.......H..P...H
 01b0 8d85d0fe ffff4889 d64889c7 e8000000  ......H..H......
 01c0 00488d95 d0feffff 488d8550 ffffff48  .H......H..P...H
 01d0 89d64889 c7e80000 0000488d 85d0feff  ..H.......H.....
 01e0 ff4889c7 e8000000 00488d85 50ffffff  .H.......H..P...
 01f0 4889c7e8 00000000 488d8550 ffffff48  H.......H..P...H
 0200 89c7e800 00000048 8d8550fe ffff4889  .......H..P...H.
 0210 c7e80000 0000b800 00000048 8b4de864  ...........H.M.d
 0220 48330c25 28000000 0f84c100 0000e9b7  H3.%(...........
 0230 00000048 89c3488d 8530feff ff4889c7  ...H..H..0...H..
 0240 e8000000 00eb0348 89c3488d 852dfeff  .......H..H..-..
 0250 ff4889c7 e8000000 00488d85 d0feffff  .H.......H......
 0260 4889c7e8 00000000 eb034889 c3488d85  H.........H..H..
 0270 2efeffff 4889c7e8 00000000 488d8550  ....H.......H..P
 0280 ffffff48 89c7e800 000000eb 034889c3  ...H.........H..
 0290 488d852f feffff48 89c7e800 00000048  H../...H.......H
 02a0 89d84889 c7e80000 00004889 c3488d85  ..H.......H..H..
 02b0 d0feffff 4889c7e8 00000000 eb034889  ....H.........H.
 02c0 c3488d85 50ffffff 4889c7e8 00000000  .H..P...H.......
 02d0 488d8550 feffff48 89c7e800 00000048  H..P...H.......H
 02e0 89d84889 c7e80000 0000e800 00000048  ..H............H
 02f0 81c4d801 00005b5d c3554889 e54883ec  ......[].UH..H..
 0300 10897dfc 8975f883 7dfc0175 27817df8  ..}..u..}..u'.}.
 0310 ffff0000 751ebf00 000000e8 00000000  ....u...........
 0320 ba000000 00be0000 0000bf00 000000e8  ................
 0330 00000000 90c9c355 4889e5be ffff0000  .......UH.......
 0340 bf010000 00e8afff ffff5dc3           ..........].    
Contents of section .data:
 0000 35c26821 a2da0fc9 00400000 00000000  5.h!.....@......
Contents of section .rodata:
 0000 0000000a 00636f6e 65007465 73740077  .....cone.test.w
 0010 6f6f6400 76656374 6f723a3a 5f4d5f65  ood.vector::_M_e
 0020 6d706c61 63655f62 61636b5f 61757800  mplace_back_aux.
Contents of section .text._ZnwmPv:
 0000 554889e5 48897df8 488975f0 488b45f0  UH..H.}.H.u.H.E.
 0010 5dc3                                 ].              
Contents of section .text._ZdlPvS_:
 0000 554889e5 48897df8 488975f0 905dc3    UH..H.}.H.u..]. 
Contents of section .text._ZN9ComponentC2ENSt7__cxx1112basic_stringIcSt11char_traitsIcESaIcEEES5_S5_ib:
 0000 554889e5 534883ec 3848897d e8488975  UH..SH..8H.}.H.u
 0010 e0488955 d848894d d0448945 cc4489c8  .H.U.H.M.D.E.D..
 0020 8845c848 8b45e848 83c01848 89c7e800  .E.H.E.H...H....
 0030 00000048 8b45e848 83c03848 89c7e800  ...H.E.H..8H....
 0040 00000048 8b45e848 83c05848 89c7e800  ...H.E.H..XH....
 0050 00000048 8b45e848 8d501848 8b45e048  ...H.E.H.P.H.E.H
 0060 89c64889 d7e80000 0000488b 45e8488d  ..H.......H.E.H.
 0070 5038488b 45d84889 c64889d7 e8000000  P8H.E.H..H......
 0080 00488b45 e8488d50 58488b45 d04889c6  .H.E.H.PXH.E.H..
 0090 4889d7e8 00000000 488b45e8 8b55cc89  H.......H.E..U..
 00a0 507ceb3e 4889c348 8b45e848 83c05848  P|.>H..H.E.H..XH
 00b0 89c7e800 00000048 8b45e848 83c03848  .......H.E.H..8H
 00c0 89c7e800 00000048 8b45e848 83c01848  .......H.E.H...H
 00d0 89c7e800 00000048 89d84889 c7e80000  .......H..H.....
 00e0 00004883 c4385b5d c3                 ..H..8[].       
Contents of section .gcc_except_table._ZN9ComponentC2ENSt7__cxx1112basic_stringIcSt11char_traitsIcESaIcEEES5_S5_ib:
 0000 ffff010a 6533a401 00dd0105 0000      ....e3........  
Contents of section .text._ZN9ComponentC2Ev:
 0000 554889e5 4883ec10 48897df8 488b45f8  UH..H...H.}.H.E.
 0010 4883c018 4889c7e8 00000000 488b45f8  H...H.......H.E.
 0020 4883c038 4889c7e8 00000000 488b45f8  H..8H.......H.E.
 0030 4883c058 4889c7e8 00000000 90c9c3    H..XH.......... 
Contents of section .text._ZN9ComponentD2Ev:
 0000 554889e5 4883ec10 48897df8 488b45f8  UH..H...H.}.H.E.
 0010 4883c058 4889c7e8 00000000 488b45f8  H..XH.......H.E.
 0020 4883c038 4889c7e8 00000000 488b45f8  H..8H.......H.E.
 0030 4883c018 4889c7e8 00000000 90c9c3    H...H.......... 
Contents of section .text._ZN6Rocket12AddComponentE9Component:
 0000 554889e5 4883ec10 48897df8 488975f0  UH..H...H.}.H.u.
 0010 488b45f8 488d9080 00000048 8b45f048  H.E.H......H.E.H
 0020 89c64889 d7e80000 000090c9 c3        ..H..........   
Contents of section .text._ZN6Rocket15printComponentsEv:
 0000 554889e5 4883ec20 48897de8 48c745f8  UH..H.. H.}.H.E.
 0010 00000000 488b45e8 4883e880 4889c7e8  ....H.E.H...H...
 0020 00000000 483b45f8 0f97c084 c0742e48  ....H;E......t.H
 0030 8b45e848 8d908000 0000488b 45f84889  .E.H......H.E.H.
 0040 c64889d7 e8000000 004889c6 bf000000  .H.......H......
 0050 00e80000 00004883 45f801eb b790c9c3  ......H.E.......
Contents of section .text._ZN6RocketC2Ev:
 0000 554889e5 4883ec10 48897df8 488b45f8  UH..H...H.}.H.E.
 0010 4889c7e8 00000000 488b45f8 4883e880  H.......H.E.H...
 0020 4889c7e8 00000000 90c9c3             H..........     
Contents of section .text._ZN6RocketD2Ev:
 0000 554889e5 4883ec10 48897df8 488b45f8  UH..H...H.}.H.E.
 0010 4883e880 4889c7e8 00000000 488b45f8  H...H.......H.E.
 0020 4889c7e8 00000000 90c9c3             H..........     
Contents of section .text._ZN9ComponentC2ERKS_:
 0000 554889e5 534883ec 1848897d e8488975  UH..SH...H.}.H.u
 0010 e0488b45 e0488b10 488b45e8 48891048  .H.E.H..H.E.H..H
 0020 8b45e0f3 0f104008 488b45e8 f30f1140  .E....@.H.E....@
 0030 08488b45 e0f30f10 400c488b 45e8f30f  .H.E....@.H.E...
 0040 11400c48 8b45e0f3 0f104010 488b45e8  .@.H.E....@.H.E.
 0050 f30f1140 10488b45 e0f30f10 4014488b  ...@.H.E....@.H.
 0060 45e8f30f 11401448 8b45e048 8d501848  E....@.H.E.H.P.H
 0070 8b45e848 83c01848 89d64889 c7e80000  .E.H...H..H.....
 0080 0000488b 45e0488d 5038488b 45e84883  ..H.E.H.P8H.E.H.
 0090 c0384889 d64889c7 e8000000 00488b45  .8H..H.......H.E
 00a0 e0488d50 58488b45 e84883c0 584889d6  .H.PXH.E.H..XH..
 00b0 4889c7e8 00000000 488b45e0 0fb65078  H.......H.E...Px
 00c0 488b45e8 88507848 8b45e08b 507c488b  H.E..PxH.E..P|H.
 00d0 45e88950 7ceb3348 89c3488b 45e84883  E..P|.3H..H.E.H.
 00e0 c0384889 c7e80000 0000eb03 4889c348  .8H.........H..H
 00f0 8b45e848 83c01848 89c7e800 00000048  .E.H...H.......H
 0100 89d84889 c7e80000 00004883 c4185b5d  ..H.......H...[]
 0110 c3                                   .               
Contents of section .gcc_except_table._ZN9ComponentC2ERKS_:
 0000 ffff0115 7d050000 980105ec 0100b301  ....}...........
 0010 05d70100 85020500 00                 .........       
Contents of section .gcc_except_table:
 0000 ffff012d 40059704 006a05f4 03009401  ...-@....j......
 0010 05d10300 c40105bd 0300c602 05c80400  ................
 0020 df0205b4 0400fd02 05c80400 af044500  ..............E.
 0030 00ffff01 00ffff01 00ffff01 00000000  ................
 0040 ff032501 1a221c00 00810137 d50201e5  ..%..".....7....
 0050 013a0000 880345cd 0300db03 05000001  .:....E.........
 0060 00000000 00000000 ffff0108 47054e00  ............G.N.
 0070 62050000 ff031901 0f2b0573 0189010a  b........+.s....
 0080 930100a1 01050000 01000000 00000000  ................
Contents of section .text._ZNSt6vectorI9ComponentSaIS0_EEC2Ev:
 0000 554889e5 4883ec10 48897df8 488b45f8  UH..H...H.}.H.E.
 0010 4889c7e8 00000000 90c9c3             H..........     
Contents of section .text._ZNSt6vectorI9ComponentSaIS0_EED2Ev:
 0000 554889e5 4883ec10 48897df8 488b45f8  UH..H...H.}.H.E.
 0010 4889c7e8 00000000 4889c248 8b45f848  H.......H..H.E.H
 0020 8b480848 8b45f848 8b004889 ce4889c7  .H.H.E.H..H..H..
 0030 e8000000 00488b45 f84889c7 e8000000  .....H.E.H......
 0040 0090c9c3                             ....            
Contents of section .text._ZNSt6vectorI9ComponentSaIS0_EE9push_backERKS0_:
 0000 554889e5 4883ec10 48897df8 488975f0  UH..H...H.}.H.u.
 0010 488b45f8 488b5008 488b45f8 488b4010  H.E.H.P.H.E.H.@.
 0020 4839c274 34488b45 f8488b48 08488b45  H9.t4H.E.H.H.H.E
 0030 f8488b55 f04889ce 4889c7e8 00000000  .H.U.H..H.......
 0040 488b45f8 488b4008 488d9080 00000048  H.E.H.@.H......H
 0050 8b45f848 895008eb 13488b55 f0488b45  .E.H.P...H.U.H.E
 0060 f84889d6 4889c7e8 00000000 90c9c3    .H..H.......... 
Contents of section .text._ZNKSt6vectorI9ComponentSaIS0_EE4sizeEv:
 0000 554889e5 48897df8 488b45f8 488b4008  UH..H.}.H.E.H.@.
 0010 4889c248 8b45f848 8b004829 c24889d0  H..H.E.H..H).H..
 0020 48c1f807 5dc3                        H...].          
Contents of section .text._ZNSt6vectorI9ComponentSaIS0_EEixEm:
 0000 554889e5 48897df8 488975f0 488b45f8  UH..H.}.H.u.H.E.
 0010 488b0048 8b55f048 c1e20748 01d05dc3  H..H.U.H...H..].
Contents of section .text._ZNSt12_Vector_baseI9ComponentSaIS0_EE12_Vector_implD2Ev:
 0000 554889e5 4883ec10 48897df8 488b45f8  UH..H...H.}.H.E.
 0010 4889c7e8 00000000 90c9c3             H..........     
Contents of section .text._ZNSt12_Vector_baseI9ComponentSaIS0_EEC2Ev:
 0000 554889e5 4883ec10 48897df8 488b45f8  UH..H...H.}.H.E.
 0010 4889c7e8 00000000 90c9c3             H..........     
Contents of section .text._ZNSt12_Vector_baseI9ComponentSaIS0_EED2Ev:
 0000 554889e5 4883ec10 48897df8 488b45f8  UH..H...H.}.H.E.
 0010 488b4010 4889c248 8b45f848 8b004829  H.@.H..H.E.H..H)
 0020 c24889d0 48c1f807 4889c248 8b45f848  .H..H...H..H.E.H
 0030 8b08488b 45f84889 ce4889c7 e8000000  ..H.E.H..H......
 0040 00488b45 f84889c7 e8000000 0090c9c3  .H.E.H..........
Contents of section .text._ZNSt12_Vector_baseI9ComponentSaIS0_EE19_M_get_Tp_allocatorEv:
 0000 554889e5 48897df8 488b45f8 5dc3      UH..H.}.H.E.].  
Contents of section .text._ZSt8_DestroyIP9ComponentS0_EvT_S2_RSaIT0_E:
 0000 554889e5 4883ec20 48897df8 488975f0  UH..H.. H.}.H.u.
 0010 488955e8 488b55f0 488b45f8 4889d648  H.U.H.U.H.E.H..H
 0020 89c7e800 00000090 c9c3               ..........      
Contents of section .text._ZSt7forwardIRK9ComponentEOT_RNSt16remove_referenceIS3_E4typeE:
 0000 554889e5 48897df8 488b45f8 5dc3      UH..H.}.H.E.].  
Contents of section .text._ZNSt16allocator_traitsISaI9ComponentEE9constructIS0_JRKS0_EEEvRS1_PT_DpOT0_:
 0000 554889e5 4883ec20 48897df8 488975f0  UH..H.. H.}.H.u.
 0010 488955e8 488b45e8 4889c7e8 00000000  H.U.H.E.H.......
 0020 4889c248 8b4df048 8b45f848 89ce4889  H..H.M.H.E.H..H.
 0030 c7e80000 000090c9 c3                 .........       
Contents of section .text._ZNSt6vectorI9ComponentSaIS0_EE19_M_emplace_back_auxIJRKS0_EEEvDpOT_:
 0000 554889e5 534883ec 3848897d c8488975  UH..SH..8H.}.H.u
 0010 c0488b45 c8ba0000 0000be01 00000048  .H.E...........H
 0020 89c7e800 00000048 8945e048 8b45c848  .......H.E.H.E.H
 0030 8b55e048 89d64889 c7e80000 00004889  .U.H..H.......H.
 0040 45e8488b 45e84889 45d8488b 45c04889  E.H.E.H.E.H.E.H.
 0050 c7e80000 00004889 c3488b45 c84889c7  ......H..H.E.H..
 0060 e8000000 0048c1e0 074889c2 488b45e8  .....H...H..H.E.
 0070 488d0c02 488b45c8 4889da48 89ce4889  H...H.E.H..H..H.
 0080 c7e80000 000048c7 45d80000 0000488b  ......H.E.....H.
 0090 45c84889 c7e80000 00004889 c1488b45  E.H.......H..H.E
 00a0 c8488b70 08488b45 c8488b00 488b55e8  .H.p.H.E.H..H.U.
 00b0 4889c7e8 00000000 488945d8 48836dd8  H.......H.E.H.m.
 00c0 80488b45 c84889c7 e8000000 004889c2  .H.E.H.......H..
 00d0 488b45c8 488b4808 488b45c8 488b0048  H.E.H.H.H.E.H..H
 00e0 89ce4889 c7e80000 0000488b 45c8488b  ..H.......H.E.H.
 00f0 40104889 c2488b45 c8488b00 4829c248  @.H..H.E.H..H).H
 0100 89d048c1 f8074889 c2488b45 c8488b08  ..H...H..H.E.H..
 0110 488b45c8 4889ce48 89c7e800 00000048  H.E.H..H.......H
 0120 8b45c848 8b55e848 8910488b 45c8488b  .E.H.U.H..H.E.H.
 0130 55d84889 5008488b 45e048c1 e0074889  U.H.P.H.E.H...H.
 0140 c2488b45 e84801c2 488b45c8 48895010  .H.E.H..H.E.H.P.
 0150 e98b0000 004889c7 e8000000 0048837d  .....H.......H.}
 0160 d800752b 488b45c8 4889c7e8 00000000  ..u+H.E.H.......
 0170 48c1e007 4889c248 8b45e848 01c2488b  H...H..H.E.H..H.
 0180 45c84889 d64889c7 e8000000 00eb2248  E.H..H........"H
 0190 8b45c848 89c7e800 00000048 89c2488b  .E.H.......H..H.
 01a0 4dd8488b 45e84889 ce4889c7 e8000000  M.H.E.H..H......
 01b0 00488b45 c8488b55 e0488b4d e84889ce  .H.E.H.U.H.M.H..
 01c0 4889c7e8 00000000 e8000000 004889c3  H............H..
 01d0 e8000000 004889d8 4889c7e8 00000000  .....H..H.......
 01e0 4883c438 5b5dc3                      H..8[].         
Contents of section .text._ZNSt12_Vector_baseI9ComponentSaIS0_EE12_Vector_implC2Ev:
 0000 554889e5 4883ec10 48897df8 488b45f8  UH..H...H.}.H.E.
 0010 4889c7e8 00000000 488b45f8 48c70000  H.......H.E.H...
 0020 00000048 8b45f848 c7400800 00000048  ...H.E.H.@.....H
 0030 8b45f848 c7401000 00000090 c9c3      .E.H.@........  
Contents of section .text._ZNSaI9ComponentED2Ev:
 0000 554889e5 4883ec10 48897df8 488b45f8  UH..H...H.}.H.E.
 0010 4889c7e8 00000000 90c9c3             H..........     
Contents of section .text._ZNSt12_Vector_baseI9ComponentSaIS0_EE13_M_deallocateEPS0_m:
 0000 554889e5 4883ec20 48897df8 488975f0  UH..H.. H.}.H.u.
 0010 488955e8 48837df0 00741748 8b45f848  H.U.H.}..t.H.E.H
 0020 8b55e848 8b4df048 89ce4889 c7e80000  .U.H.M.H..H.....
 0030 000090c9 c3                          .....           
Contents of section .text._ZSt8_DestroyIP9ComponentEvT_S2_:
 0000 554889e5 4883ec10 48897df8 488975f0  UH..H...H.}.H.u.
 0010 488b55f0 488b45f8 4889d648 89c7e800  H.U.H.E.H..H....
 0020 00000090 c9c3                        ......          
Contents of section .text._ZN9__gnu_cxx13new_allocatorI9ComponentE9constructIS1_JRKS1_EEEvPT_DpOT0_:
 0000 554889e5 41554154 534883ec 2848897d  UH..AUATSH..(H.}
 0010 d8488975 d0488955 c8488b45 c84889c7  .H.u.H.U.H.E.H..
 0020 e8000000 004989c5 4c8b65d0 4c89e6bf  .....I..L.e.L...
 0030 80000000 e8000000 004889c3 4885db74  .........H..H..t
 0040 264c89ee 4889dfe8 00000000 eb194989  &L..H.........I.
 0050 c54c89e6 4889dfe8 00000000 4c89e848  .L..H.......L..H
 0060 89c7e800 00000090 4883c428 5b415c41  ........H..([A\A
 0070 5d5dc3                               ]].             
Contents of section .text._ZNKSt6vectorI9ComponentSaIS0_EE12_M_check_lenEmPKc:
 0000 554889e5 534883ec 4848897d c8488975  UH..SH..HH.}.H.u
 0010 c0488955 b864488b 04252800 00004889  .H.U.dH..%(...H.
 0020 45e831c0 488b45c8 4889c7e8 00000000  E.1.H.E.H.......
 0030 4889c348 8b45c848 89c7e800 00000048  H..H.E.H.......H
 0040 29c34889 da488b45 c04839c2 0f92c084  ).H..H.E.H9.....
 0050 c0740c48 8b45b848 89c7e800 00000048  .t.H.E.H.......H
 0060 8b45c848 89c7e800 00000048 89c3488b  .E.H.......H..H.
 0070 45c84889 c7e80000 00004889 45d8488d  E.H.......H.E.H.
 0080 55c0488d 45d84889 d64889c7 e8000000  U.H.E.H..H......
 0090 00488b00 4801d848 8945e048 8b45c848  .H..H..H.E.H.E.H
 00a0 89c7e800 00000048 3b45e077 12488b45  .......H;E.w.H.E
 00b0 c84889c7 e8000000 00483b45 e0730e48  .H.......H;E.s.H
 00c0 8b45c848 89c7e800 000000eb 04488b45  .E.H.........H.E
 00d0 e0488b4d e8644833 0c252800 00007405  .H.M.dH3.%(...t.
 00e0 e8000000 004883c4 485b5dc3           .....H..H[].    
Contents of section .text._ZNSt12_Vector_baseI9ComponentSaIS0_EE11_M_allocateEm:
 0000 554889e5 4883ec10 48897df8 488975f0  UH..H...H.}.H.u.
 0010 48837df0 00741548 8b45f848 8b55f048  H.}..t.H.E.H.U.H
 0020 89d64889 c7e80000 0000eb05 b8000000  ..H.............
 0030 00c9c3                               ...             
Contents of section .text._ZSt34__uninitialized_move_if_noexcept_aIP9ComponentS1_SaIS0_EET0_T_S4_S3_RT1_:
 0000 554889e5 534883ec 2848897d e8488975  UH..SH..(H.}.H.u
 0010 e0488955 d848894d d0488b45 e04889c7  .H.U.H.M.H.E.H..
 0020 e8000000 004889c3 488b45e8 4889c7e8  .....H..H.E.H...
 0030 00000000 4889c748 8b55d048 8b45d848  ....H..H.U.H.E.H
 0040 89d14889 c24889de e8000000 004883c4  ..H..H.......H..
 0050 285b5dc3                             ([].            
Contents of section .text._ZNSt16allocator_traitsISaI9ComponentEE7destroyIS0_EEvRS1_PT_:
 0000 554889e5 4883ec10 48897df8 488975f0  UH..H...H.}.H.u.
 0010 488b55f0 488b45f8 4889d648 89c7e800  H.U.H.E.H..H....
 0020 00000090 c9c3                        ......          
Contents of section .text._ZNSaI9ComponentEC2Ev:
 0000 554889e5 4883ec10 48897df8 488b45f8  UH..H...H.}.H.E.
 0010 4889c7e8 00000000 90c9c3             H..........     
Contents of section .text._ZN9__gnu_cxx13new_allocatorI9ComponentED2Ev:
 0000 554889e5 48897df8 905dc3             UH..H.}..].     
Contents of section .text._ZNSt16allocator_traitsISaI9ComponentEE10deallocateERS1_PS0_m:
 0000 554889e5 4883ec20 48897df8 488975f0  UH..H.. H.}.H.u.
 0010 488955e8 488b55e8 488b4df0 488b45f8  H.U.H.U.H.M.H.E.
 0020 4889ce48 89c7e800 00000090 c9c3      H..H..........  
Contents of section .text._ZNSt12_Destroy_auxILb0EE9__destroyIP9ComponentEEvT_S4_:
 0000 554889e5 4883ec10 48897df8 488975f0  UH..H...H.}.H.u.
 0010 488b45f8 483b45f0 741b488b 45f84889  H.E.H;E.t.H.E.H.
 0020 c7e80000 00004889 c7e80000 00004883  ......H.......H.
 0030 6df880eb db90c9c3                    m.......        
Contents of section .text._ZNKSt6vectorI9ComponentSaIS0_EE8max_sizeEv:
 0000 554889e5 4883ec10 48897df8 488b45f8  UH..H...H.}.H.E.
 0010 4889c7e8 00000000 4889c7e8 00000000  H.......H.......
 0020 c9c3                                 ..              
Contents of section .text._ZSt3maxImERKT_S2_S2_:
 0000 554889e5 48897df8 488975f0 488b45f8  UH..H.}.H.u.H.E.
 0010 488b1048 8b45f048 8b004839 c2730648  H..H.E.H..H9.s.H
 0020 8b45f0eb 04488b45 f85dc3             .E...H.E.].     
Contents of section .text._ZNSt16allocator_traitsISaI9ComponentEE8allocateERS1_m:
 0000 554889e5 4883ec10 48897df8 488975f0  UH..H...H.}.H.u.
 0010 488b4df0 488b45f8 ba000000 004889ce  H.M.H.E......H..
 0020 4889c7e8 00000000 c9c3               H.........      
Contents of section .text._ZSt32__make_move_if_noexcept_iteratorIP9ComponentSt13move_iteratorIS1_EET0_T_:
 0000 554889e5 4883ec20 48897de8 64488b04  UH..H.. H.}.dH..
 0010 25280000 00488945 f831c048 8b55e848  %(...H.E.1.H.U.H
 0020 8d45f048 89d64889 c7e80000 0000488b  .E.H..H.......H.
 0030 45f0488b 4df86448 330c2528 00000074  E.H.M.dH3.%(...t
 0040 05e80000 0000c9c3                    ........        
Contents of section .text._ZSt22__uninitialized_copy_aISt13move_iteratorIP9ComponentES2_S1_ET0_T_S5_S4_RSaIT1_E:
 0000 554889e5 4883ec20 48897df0 488975e0  UH..H.. H.}.H.u.
 0010 488955e8 48894df8 488b55e8 488b4de0  H.U.H.M.H.U.H.M.
 0020 488b45f0 4889ce48 89c7e800 000000c9  H.E.H..H........
 0030 c3                                   .               
Contents of section .text._ZN9__gnu_cxx13new_allocatorI9ComponentE7destroyIS1_EEvPT_:
 0000 554889e5 4883ec10 48897df8 488975f0  UH..H...H.}.H.u.
 0010 488b45f0 4889c7e8 00000000 90c9c3    H.E.H.......... 
Contents of section .text._ZN9__gnu_cxx13new_allocatorI9ComponentEC2Ev:
 0000 554889e5 48897df8 905dc3             UH..H.}..].     
Contents of section .text._ZN9__gnu_cxx13new_allocatorI9ComponentE10deallocateEPS1_m:
 0000 554889e5 4883ec20 48897df8 488975f0  UH..H.. H.}.H.u.
 0010 488955e8 488b45f0 4889c7e8 00000000  H.U.H.E.H.......
 0020 90c9c3                               ...             
Contents of section .text._ZSt11__addressofI9ComponentEPT_RS1_:
 0000 554889e5 48897df8 488b45f8 5dc3      UH..H.}.H.E.].  
Contents of section .text._ZSt8_DestroyI9ComponentEvPT_:
 0000 554889e5 4883ec10 48897df8 488b45f8  UH..H...H.}.H.E.
 0010 4889c7e8 00000000 90c9c3             H..........     
Contents of section .text._ZNSt16allocator_traitsISaI9ComponentEE8max_sizeERKS1_:
 0000 554889e5 4883ec10 48897df8 488b45f8  UH..H...H.}.H.E.
 0010 4889c7e8 00000000 c9c3               H.........      
Contents of section .text._ZNKSt12_Vector_baseI9ComponentSaIS0_EE19_M_get_Tp_allocatorEv:
 0000 554889e5 48897df8 488b45f8 5dc3      UH..H.}.H.E.].  
Contents of section .text._ZN9__gnu_cxx13new_allocatorI9ComponentE8allocateEmPKv:
 0000 554889e5 4883ec20 48897df8 488975f0  UH..H.. H.}.H.u.
 0010 488955e8 488b45f8 4889c7e8 00000000  H.U.H.E.H.......
 0020 483b45f0 0f92c084 c07405e8 00000000  H;E......t......
 0030 488b45f0 48c1e007 4889c7e8 00000000  H.E.H...H.......
 0040 c9c3                                 ..              
Contents of section .text._ZNSt13move_iteratorIP9ComponentEC2ES1_:
 0000 554889e5 48897df8 488975f0 488b45f8  UH..H.}.H.u.H.E.
 0010 488b55f0 48891090 5dc3               H.U.H...].      
Contents of section .text._ZSt18uninitialized_copyISt13move_iteratorIP9ComponentES2_ET0_T_S5_S4_:
 0000 554889e5 4883ec30 48897de0 488975d0  UH..H..0H.}.H.u.
 0010 488955d8 c645ff01 488b55d8 488b4dd0  H.U..E..H.U.H.M.
 0020 488b45e0 4889ce48 89c7e800 000000c9  H.E.H..H........
 0030 c3                                   .               
Contents of section .text._ZNK9__gnu_cxx13new_allocatorI9ComponentE8max_sizeEv:
 0000 554889e5 48897df8 48b8ffff ffffffff  UH..H.}.H.......
 0010 ff015dc3                             ..].            
Contents of section .text._ZNSt20__uninitialized_copyILb0EE13__uninit_copyISt13move_iteratorIP9ComponentES4_EET0_T_S7_S6_:
 0000 554889e5 534883ec 3848897d d0488975  UH..SH..8H.}.H.u
 0010 c0488955 c8488b45 c8488945 e8488d55  .H.U.H.E.H.E.H.U
 0020 c0488d45 d04889d6 4889c7e8 00000000  .H.E.H..H.......
 0030 84c07439 488d45d0 4889c7e8 00000000  ..t9H.E.H.......
 0040 4889c348 8b45e848 89c7e800 00000048  H..H.E.H.......H
 0050 89de4889 c7e80000 0000488d 45d04889  ..H.......H.E.H.
 0060 c7e80000 00004883 6de880eb b0488b45  ......H.m....H.E
 0070 e8eb3348 89c7e800 00000048 8b55e848  ..3H.......H.U.H
 0080 8b45c848 89d64889 c7e80000 0000e800  .E.H..H.........
 0090 00000048 89c3e800 00000048 89d84889  ...H.......H..H.
 00a0 c7e80000 00004883 c4385b5d c3        ......H..8[].   
Contents of section .text._ZStneIP9ComponentEbRKSt13move_iteratorIT_ES6_:
 0000 554889e5 4883ec10 48897df8 488975f0  UH..H...H.}.H.u.
 0010 488b55f0 488b45f8 4889d648 89c7e800  H.U.H.E.H..H....
 0020 00000083 f001c9c3                    ........        
Contents of section .text._ZNSt13move_iteratorIP9ComponentEppEv:
 0000 554889e5 48897df8 488b45f8 488b0048  UH..H.}.H.E.H..H
 0010 8d908000 0000488b 45f84889 10488b45  ......H.E.H..H.E
 0020 f85dc3                               .].             
Contents of section .text._ZNKSt13move_iteratorIP9ComponentEdeEv:
 0000 554889e5 48897df8 488b45f8 488b005d  UH..H.}.H.E.H..]
 0010 c3                                   .               
Contents of section .text._ZSt7forwardI9ComponentEOT_RNSt16remove_referenceIS1_E4typeE:
 0000 554889e5 48897df8 488b45f8 5dc3      UH..H.}.H.E.].  
Contents of section .text._ZN9ComponentC2EOS_:
 0000 554889e5 4883ec10 48897df8 488975f0  UH..H...H.}.H.u.
 0010 488b45f0 488b1048 8b45f848 8910488b  H.E.H..H.E.H..H.
 0020 45f0f30f 10400848 8b45f8f3 0f114008  E....@.H.E....@.
 0030 488b45f0 f30f1040 0c488b45 f8f30f11  H.E....@.H.E....
 0040 400c488b 45f0f30f 10401048 8b45f8f3  @.H.E....@.H.E..
 0050 0f114010 488b45f0 f30f1040 14488b45  ..@.H.E....@.H.E
 0060 f8f30f11 4014488b 45f0488d 5018488b  ....@.H.E.H.P.H.
 0070 45f84883 c0184889 d64889c7 e8000000  E.H...H..H......
 0080 00488b45 f0488d50 38488b45 f84883c0  .H.E.H.P8H.E.H..
 0090 384889d6 4889c7e8 00000000 488b45f0  8H..H.......H.E.
 00a0 488d5058 488b45f8 4883c058 4889d648  H.PXH.E.H..XH..H
 00b0 89c7e800 00000048 8b45f00f b6507848  .......H.E...PxH
 00c0 8b45f888 5078488b 45f08b50 7c488b45  .E..PxH.E..P|H.E
 00d0 f889507c 90c9c3                      ..P|...         
Contents of section .text._ZSt10_ConstructI9ComponentJS0_EEvPT_DpOT0_:
 0000 554889e5 534883ec 1848897d e8488975  UH..SH...H.}.H.u
 0010 e0488b45 e04889c7 e8000000 004889c3  .H.E.H.......H..
 0020 488b45e8 4889c6bf 80000000 e8000000  H.E.H...........
 0030 004885c0 740b4889 de4889c7 e8000000  .H..t.H..H......
 0040 00904883 c4185b5d c3                 ..H...[].       
Contents of section .text._ZSteqIP9ComponentEbRKSt13move_iteratorIT_ES6_:
 0000 554889e5 534883ec 1848897d e8488975  UH..SH...H.}.H.u
 0010 e0488b45 e84889c7 e8000000 004889c3  .H.E.H.......H..
 0020 488b45e0 4889c7e8 00000000 4839c30f  H.E.H.......H9..
 0030 94c04883 c4185b5d c3                 ..H...[].       
Contents of section .text._ZNKSt13move_iteratorIP9ComponentE4baseEv:
 0000 554889e5 48897df8 488b45f8 488b005d  UH..H.}.H.E.H..]
 0010 c3                                   .               
Contents of section .init_array:
 0000 00000000 00000000                    ........        
Contents of section .comment:
 0000 00474343 3a202855 62756e74 7520352e  .GCC: (Ubuntu 5.
 0010 342e302d 36756275 6e747531 7e31362e  4.0-6ubuntu1~16.
 0020 30342e31 32292035 2e342e30 20323031  04.12) 5.4.0 201
 0030 36303630 3900                        60609.          
Contents of section .eh_frame:
 0000 14000000 00000000 017a5200 01781001  .........zR..x..
 0010 1b0c0708 90010000 1c000000 1c000000  ................
 0020 00000000 12000000 00410e10 8602430d  .........A....C.
 0030 064d0c07 08000000 1c000000 3c000000  .M..........<...
 0040 00000000 0f000000 00410e10 8602430d  .........A....C.
 0050 064a0c07 08000000 1c000000 00000000  .J..............
 0060 017a504c 52000178 10070300 00000003  .zPLR..x........
 0070 1b0c0708 90010000 24000000 24000000  ........$...$...
 0080 00000000 e9000000 04000000 00410e10  .............A..
 0090 8602430d 06458303 02df0c07 08000000  ..C..E..........
 00a0 20000000 a4000000 00000000 76000000   ...........v...
 00b0 00410e10 8602430d 06478c03 8304026a  .A....C..G.....j
 00c0 0c070800 1c000000 c8000000 00000000  ................
 00d0 3f000000 00410e10 8602430d 067a0c07  ?....A....C..z..
 00e0 08000000 1c000000 e8000000 00000000  ................
 00f0 3f000000 00410e10 8602430d 067a0c07  ?....A....C..z..
 0100 08000000 1c000000 08010000 00000000  ................
 0110 2d000000 00410e10 8602430d 06680c07  -....A....C..h..
 0120 08000000 1c000000 28010000 00000000  ........(.......
 0130 60000000 00410e10 8602430d 06025b0c  `....A....C...[.
 0140 07080000 1c000000 48010000 00000000  ........H.......
 0150 2b000000 00410e10 8602430d 06660c07  +....A....C..f..
 0160 08000000 1c000000 68010000 00000000  ........h.......
 0170 2b000000 00410e10 8602430d 06660c07  +....A....C..f..
 0180 08000000 24000000 30010000 00000000  ....$...0.......
 0190 11010000 04000000 00410e10 8602430d  .........A....C.
 01a0 06458303 0307010c 07080000 24000000  .E..........$...
 01b0 58010000 00000000 83020000 04000000  X...............
 01c0 00410e10 8602430d 06488303 0376020c  .A....C..H...v..
 01d0 07080000 20000000 80010000 00000000  .... ...........
 01e0 1b000000 04000000 00410e10 8602430d  .........A....C.
 01f0 06560c07 08000000 20000000 a4010000  .V...... .......
 0200 00000000 44000000 04000000 00410e10  ....D........A..
 0210 8602430d 067f0c07 08000000 1c000000  ..C.............
 0220 20020000 00000000 6f000000 00410e10   .......o....A..
 0230 8602430d 06026a0c 07080000 1c000000  ..C...j.........
 0240 40020000 00000000 26000000 00410e10  @.......&....A..
 0250 8602430d 06610c07 08000000 1c000000  ..C..a..........
 0260 60020000 00000000 20000000 00410e10  `....... ....A..
 0270 8602430d 065b0c07 08000000 1c000000  ..C..[..........
 0280 80020000 00000000 1b000000 00410e10  .............A..
 0290 8602430d 06560c07 08000000 1c000000  ..C..V..........
 02a0 a0020000 00000000 1b000000 00410e10  .............A..
 02b0 8602430d 06560c07 08000000 20000000  ..C..V...... ...
 02c0 68020000 00000000 50000000 04000000  h.......P.......
 02d0 00410e10 8602430d 06024b0c 07080000  .A....C...K.....
 02e0 1c000000 e4020000 00000000 0e000000  ................
 02f0 00410e10 8602430d 06490c07 08000000  .A....C..I......
 0300 1c000000 04030000 00000000 2a000000  ............*...
 0310 00410e10 8602430d 06650c07 08000000  .A....C..e......
 0320 1c000000 24030000 00000000 0e000000  ....$...........
 0330 00410e10 8602430d 06490c07 08000000  .A....C..I......
 0340 1c000000 44030000 00000000 39000000  ....D.......9...
 0350 00410e10 8602430d 06740c07 08000000  .A....C..t......
 0360 24000000 0c030000 00000000 e7010000  $...............
 0370 04000000 00410e10 8602430d 06458303  .....A....C..E..
 0380 03dd010c 07080000 1c000000 8c030000  ................
 0390 00000000 3e000000 00410e10 8602430d  ....>....A....C.
 03a0 06790c07 08000000 1c000000 ac030000  .y..............
 03b0 00000000 1b000000 00410e10 8602430d  .........A....C.
 03c0 06560c07 08000000 1c000000 cc030000  .V..............
 03d0 00000000 35000000 00410e10 8602430d  ....5....A....C.
 03e0 06700c07 08000000 1c000000 ec030000  .p..............
 03f0 00000000 26000000 00410e10 8602430d  ....&....A....C.
 0400 06610c07 08000000 28000000 b4030000  .a......(.......
 0410 00000000 73000000 04000000 00410e10  ....s........A..
 0420 8602430d 06498d03 8c048305 02650c07  ..C..I.......e..
 0430 08000000 20000000 38040000 00000000  .... ...8.......
 0440 ec000000 00410e10 8602430d 06458303  .....A....C..E..
 0450 02e20c07 08000000 1c000000 5c040000  ............\...
 0460 00000000 33000000 00410e10 8602430d  ....3....A....C.
 0470 066e0c07 08000000 20000000 7c040000  .n...... ...|...
 0480 00000000 54000000 00410e10 8602430d  ....T....A....C.
 0490 06458303 024a0c07 08000000 1c000000  .E...J..........
 04a0 a0040000 00000000 26000000 00410e10  ........&....A..
 04b0 8602430d 06610c07 08000000 1c000000  ..C..a..........
 04c0 c0040000 00000000 1b000000 00410e10  .............A..
 04d0 8602430d 06560c07 08000000 1c000000  ..C..V..........
 04e0 e0040000 00000000 0b000000 00410e10  .............A..
 04f0 8602430d 06460c07 08000000 1c000000  ..C..F..........
 0500 00050000 00000000 2e000000 00410e10  .............A..
 0510 8602430d 06690c07 08000000 1c000000  ..C..i..........
 0520 20050000 00000000 38000000 00410e10   .......8....A..
 0530 8602430d 06730c07 08000000 1c000000  ..C..s..........
 0540 40050000 00000000 22000000 00410e10  @......."....A..
 0550 8602430d 065d0c07 08000000 1c000000  ..C..]..........
 0560 60050000 00000000 2b000000 00410e10  `.......+....A..
 0570 8602430d 06660c07 08000000 1c000000  ..C..f..........
 0580 80050000 00000000 2a000000 00410e10  ........*....A..
 0590 8602430d 06650c07 08000000 1c000000  ..C..e..........
 05a0 a0050000 00000000 48000000 00410e10  ........H....A..
 05b0 8602430d 0602430c 07080000 1c000000  ..C...C.........
 05c0 c0050000 00000000 31000000 00410e10  ........1....A..
 05d0 8602430d 066c0c07 08000000 1c000000  ..C..l..........
 05e0 e0050000 00000000 1f000000 00410e10  .............A..
 05f0 8602430d 065a0c07 08000000 1c000000  ..C..Z..........
 0600 00060000 00000000 0b000000 00410e10  .............A..
 0610 8602430d 06460c07 08000000 1c000000  ..C..F..........
 0620 20060000 00000000 23000000 00410e10   .......#....A..
 0630 8602430d 065e0c07 08000000 1c000000  ..C..^..........
 0640 40060000 00000000 0e000000 00410e10  @............A..
 0650 8602430d 06490c07 08000000 1c000000  ..C..I..........
 0660 60060000 00000000 1b000000 00410e10  `............A..
 0670 8602430d 06560c07 08000000 1c000000  ..C..V..........
 0680 80060000 00000000 1a000000 00410e10  .............A..
 0690 8602430d 06550c07 08000000 1c000000  ..C..U..........
 06a0 a0060000 00000000 0e000000 00410e10  .............A..
 06b0 8602430d 06490c07 08000000 1c000000  ..C..I..........
 06c0 c0060000 00000000 42000000 00410e10  ........B....A..
 06d0 8602430d 067d0c07 08000000 1c000000  ..C..}..........
 06e0 e0060000 00000000 1a000000 00410e10  .............A..
 06f0 8602430d 06550c07 08000000 1c000000  ..C..U..........
 0700 00070000 00000000 31000000 00410e10  ........1....A..
 0710 8602430d 066c0c07 08000000 1c000000  ..C..l..........
 0720 20070000 00000000 14000000 00410e10   ............A..
 0730 8602430d 064f0c07 08000000 24000000  ..C..O......$...
 0740 e8060000 00000000 ad000000 04000000  ................
 0750 00410e10 8602430d 06458303 02a30c07  .A....C..E......
 0760 08000000 1c000000 68070000 00000000  ........h.......
 0770 28000000 00410e10 8602430d 06630c07  (....A....C..c..
 0780 08000000 1c000000 88070000 00000000  ................
 0790 23000000 00410e10 8602430d 065e0c07  #....A....C..^..
 07a0 08000000 1c000000 a8070000 00000000  ................
 07b0 11000000 00410e10 8602430d 064c0c07  .....A....C..L..
 07c0 08000000 1c000000 c8070000 00000000  ................
 07d0 0e000000 00410e10 8602430d 06490c07  .....A....C..I..
 07e0 08000000 1c000000 e8070000 00000000  ................
 07f0 d7000000 00410e10 8602430d 0602d20c  .....A....C.....
 0800 07080000 1c000000 08080000 00000000  ................
 0810 49000000 00410e10 8602430d 06458303  I....A....C..E..
 0820 7f0c0708 1c000000 28080000 00000000  ........(.......
 0830 39000000 00410e10 8602430d 06458303  9....A....C..E..
 0840 6f0c0708 1c000000 48080000 00000000  o.......H.......
 0850 11000000 00410e10 8602430d 064c0c07  .....A....C..L..
 0860 08000000 1c000000 68080000 00000000  ........h.......
 0870 3e000000 00410e10 8602430d 06790c07  >....A....C..y..
 0880 08000000 20000000 88080000 00000000  .... ...........
 0890 15000000 00410e10 8602430d 06500c07  .....A....C..P..
 08a0 08000000 00000000                    ........        

Disassembly of section .text:

0000000000000000 <_ZlsRSoRK9Component>:
   0:	55                   	push   %rbp
   1:	48 89 e5             	mov    %rsp,%rbp
   4:	41 54                	push   %r12
   6:	53                   	push   %rbx
   7:	48 83 ec 10          	sub    $0x10,%rsp
   b:	48 89 7d e8          	mov    %rdi,-0x18(%rbp)
   f:	48 89 75 e0          	mov    %rsi,-0x20(%rbp)
  13:	48 8b 45 e0          	mov    -0x20(%rbp),%rax
  17:	4c 8d 60 58          	lea    0x58(%rax),%r12
  1b:	48 8b 45 e0          	mov    -0x20(%rbp),%rax
  1f:	48 8b 18             	mov    (%rax),%rbx
  22:	48 8b 45 e0          	mov    -0x20(%rbp),%rax
  26:	48 8d 50 38          	lea    0x38(%rax),%rdx
  2a:	48 8b 45 e8          	mov    -0x18(%rbp),%rax
  2e:	48 89 d6             	mov    %rdx,%rsi
  31:	48 89 c7             	mov    %rax,%rdi
  34:	e8 00 00 00 00       	callq  39 <_ZlsRSoRK9Component+0x39>
  39:	be 00 00 00 00       	mov    $0x0,%esi
  3e:	48 89 c7             	mov    %rax,%rdi
  41:	e8 00 00 00 00       	callq  46 <_ZlsRSoRK9Component+0x46>
  46:	48 89 de             	mov    %rbx,%rsi
  49:	48 89 c7             	mov    %rax,%rdi
  4c:	e8 00 00 00 00       	callq  51 <_ZlsRSoRK9Component+0x51>
  51:	be 00 00 00 00       	mov    $0x0,%esi
  56:	48 89 c7             	mov    %rax,%rdi
  59:	e8 00 00 00 00       	callq  5e <_ZlsRSoRK9Component+0x5e>
  5e:	4c 89 e6             	mov    %r12,%rsi
  61:	48 89 c7             	mov    %rax,%rdi
  64:	e8 00 00 00 00       	callq  69 <_ZlsRSoRK9Component+0x69>
  69:	48 8b 45 e8          	mov    -0x18(%rbp),%rax
  6d:	48 83 c4 10          	add    $0x10,%rsp
  71:	5b                   	pop    %rbx
  72:	41 5c                	pop    %r12
  74:	5d                   	pop    %rbp
  75:	c3                   	retq   

0000000000000076 <main>:
  76:	55                   	push   %rbp
  77:	48 89 e5             	mov    %rsp,%rbp
  7a:	53                   	push   %rbx
  7b:	48 81 ec d8 01 00 00 	sub    $0x1d8,%rsp
  82:	64 48 8b 04 25 28 00 	mov    %fs:0x28,%rax
  89:	00 00 
  8b:	48 89 45 e8          	mov    %rax,-0x18(%rbp)
  8f:	31 c0                	xor    %eax,%eax
  91:	48 8d 85 2f fe ff ff 	lea    -0x1d1(%rbp),%rax
  98:	48 89 c7             	mov    %rax,%rdi
  9b:	e8 00 00 00 00       	callq  a0 <main+0x2a>
  a0:	48 8d 95 2f fe ff ff 	lea    -0x1d1(%rbp),%rdx
  a7:	48 8d 85 50 ff ff ff 	lea    -0xb0(%rbp),%rax
  ae:	be 00 00 00 00       	mov    $0x0,%esi
  b3:	48 89 c7             	mov    %rax,%rdi
  b6:	e8 00 00 00 00       	callq  bb <main+0x45>
  bb:	48 8d 85 2e fe ff ff 	lea    -0x1d2(%rbp),%rax
  c2:	48 89 c7             	mov    %rax,%rdi
  c5:	e8 00 00 00 00       	callq  ca <main+0x54>
  ca:	48 8d 95 2e fe ff ff 	lea    -0x1d2(%rbp),%rdx
  d1:	48 8d 85 d0 fe ff ff 	lea    -0x130(%rbp),%rax
  d8:	be 00 00 00 00       	mov    $0x0,%esi
  dd:	48 89 c7             	mov    %rax,%rdi
  e0:	e8 00 00 00 00       	callq  e5 <main+0x6f>
  e5:	48 8d 85 2d fe ff ff 	lea    -0x1d3(%rbp),%rax
  ec:	48 89 c7             	mov    %rax,%rdi
  ef:	e8 00 00 00 00       	callq  f4 <main+0x7e>
  f4:	48 8d 95 2d fe ff ff 	lea    -0x1d3(%rbp),%rdx
  fb:	48 8d 85 30 fe ff ff 	lea    -0x1d0(%rbp),%rax
 102:	be 00 00 00 00       	mov    $0x0,%esi
 107:	48 89 c7             	mov    %rax,%rdi
 10a:	e8 00 00 00 00       	callq  10f <main+0x99>
 10f:	48 8d 8d 50 ff ff ff 	lea    -0xb0(%rbp),%rcx
 116:	48 8d 95 d0 fe ff ff 	lea    -0x130(%rbp),%rdx
 11d:	48 8d b5 30 fe ff ff 	lea    -0x1d0(%rbp),%rsi
 124:	48 8d 85 50 fe ff ff 	lea    -0x1b0(%rbp),%rax
 12b:	41 b9 01 00 00 00    	mov    $0x1,%r9d
 131:	41 b8 00 00 00 00    	mov    $0x0,%r8d
 137:	48 89 c7             	mov    %rax,%rdi
 13a:	e8 00 00 00 00       	callq  13f <main+0xc9>
 13f:	48 8d 85 30 fe ff ff 	lea    -0x1d0(%rbp),%rax
 146:	48 89 c7             	mov    %rax,%rdi
 149:	e8 00 00 00 00       	callq  14e <main+0xd8>
 14e:	48 8d 85 2d fe ff ff 	lea    -0x1d3(%rbp),%rax
 155:	48 89 c7             	mov    %rax,%rdi
 158:	e8 00 00 00 00       	callq  15d <main+0xe7>
 15d:	48 8d 85 d0 fe ff ff 	lea    -0x130(%rbp),%rax
 164:	48 89 c7             	mov    %rax,%rdi
 167:	e8 00 00 00 00       	callq  16c <main+0xf6>
 16c:	48 8d 85 2e fe ff ff 	lea    -0x1d2(%rbp),%rax
 173:	48 89 c7             	mov    %rax,%rdi
 176:	e8 00 00 00 00       	callq  17b <main+0x105>
 17b:	48 8d 85 50 ff ff ff 	lea    -0xb0(%rbp),%rax
 182:	48 89 c7             	mov    %rax,%rdi
 185:	e8 00 00 00 00       	callq  18a <main+0x114>
 18a:	48 8d 85 2f fe ff ff 	lea    -0x1d1(%rbp),%rax
 191:	48 89 c7             	mov    %rax,%rdi
 194:	e8 00 00 00 00       	callq  199 <main+0x123>
 199:	48 8d 85 50 ff ff ff 	lea    -0xb0(%rbp),%rax
 1a0:	48 89 c7             	mov    %rax,%rdi
 1a3:	e8 00 00 00 00       	callq  1a8 <main+0x132>
 1a8:	48 8d 95 50 fe ff ff 	lea    -0x1b0(%rbp),%rdx
 1af:	48 8d 85 d0 fe ff ff 	lea    -0x130(%rbp),%rax
 1b6:	48 89 d6             	mov    %rdx,%rsi
 1b9:	48 89 c7             	mov    %rax,%rdi
 1bc:	e8 00 00 00 00       	callq  1c1 <main+0x14b>
 1c1:	48 8d 95 d0 fe ff ff 	lea    -0x130(%rbp),%rdx
 1c8:	48 8d 85 50 ff ff ff 	lea    -0xb0(%rbp),%rax
 1cf:	48 89 d6             	mov    %rdx,%rsi
 1d2:	48 89 c7             	mov    %rax,%rdi
 1d5:	e8 00 00 00 00       	callq  1da <main+0x164>
 1da:	48 8d 85 d0 fe ff ff 	lea    -0x130(%rbp),%rax
 1e1:	48 89 c7             	mov    %rax,%rdi
 1e4:	e8 00 00 00 00       	callq  1e9 <main+0x173>
 1e9:	48 8d 85 50 ff ff ff 	lea    -0xb0(%rbp),%rax
 1f0:	48 89 c7             	mov    %rax,%rdi
 1f3:	e8 00 00 00 00       	callq  1f8 <main+0x182>
 1f8:	48 8d 85 50 ff ff ff 	lea    -0xb0(%rbp),%rax
 1ff:	48 89 c7             	mov    %rax,%rdi
 202:	e8 00 00 00 00       	callq  207 <main+0x191>
 207:	48 8d 85 50 fe ff ff 	lea    -0x1b0(%rbp),%rax
 20e:	48 89 c7             	mov    %rax,%rdi
 211:	e8 00 00 00 00       	callq  216 <main+0x1a0>
 216:	b8 00 00 00 00       	mov    $0x0,%eax
 21b:	48 8b 4d e8          	mov    -0x18(%rbp),%rcx
 21f:	64 48 33 0c 25 28 00 	xor    %fs:0x28,%rcx
 226:	00 00 
 228:	0f 84 c1 00 00 00    	je     2ef <main+0x279>
 22e:	e9 b7 00 00 00       	jmpq   2ea <main+0x274>
 233:	48 89 c3             	mov    %rax,%rbx
 236:	48 8d 85 30 fe ff ff 	lea    -0x1d0(%rbp),%rax
 23d:	48 89 c7             	mov    %rax,%rdi
 240:	e8 00 00 00 00       	callq  245 <main+0x1cf>
 245:	eb 03                	jmp    24a <main+0x1d4>
 247:	48 89 c3             	mov    %rax,%rbx
 24a:	48 8d 85 2d fe ff ff 	lea    -0x1d3(%rbp),%rax
 251:	48 89 c7             	mov    %rax,%rdi
 254:	e8 00 00 00 00       	callq  259 <main+0x1e3>
 259:	48 8d 85 d0 fe ff ff 	lea    -0x130(%rbp),%rax
 260:	48 89 c7             	mov    %rax,%rdi
 263:	e8 00 00 00 00       	callq  268 <main+0x1f2>
 268:	eb 03                	jmp    26d <main+0x1f7>
 26a:	48 89 c3             	mov    %rax,%rbx
 26d:	48 8d 85 2e fe ff ff 	lea    -0x1d2(%rbp),%rax
 274:	48 89 c7             	mov    %rax,%rdi
 277:	e8 00 00 00 00       	callq  27c <main+0x206>
 27c:	48 8d 85 50 ff ff ff 	lea    -0xb0(%rbp),%rax
 283:	48 89 c7             	mov    %rax,%rdi
 286:	e8 00 00 00 00       	callq  28b <main+0x215>
 28b:	eb 03                	jmp    290 <main+0x21a>
 28d:	48 89 c3             	mov    %rax,%rbx
 290:	48 8d 85 2f fe ff ff 	lea    -0x1d1(%rbp),%rax
 297:	48 89 c7             	mov    %rax,%rdi
 29a:	e8 00 00 00 00       	callq  29f <main+0x229>
 29f:	48 89 d8             	mov    %rbx,%rax
 2a2:	48 89 c7             	mov    %rax,%rdi
 2a5:	e8 00 00 00 00       	callq  2aa <main+0x234>
 2aa:	48 89 c3             	mov    %rax,%rbx
 2ad:	48 8d 85 d0 fe ff ff 	lea    -0x130(%rbp),%rax
 2b4:	48 89 c7             	mov    %rax,%rdi
 2b7:	e8 00 00 00 00       	callq  2bc <main+0x246>
 2bc:	eb 03                	jmp    2c1 <main+0x24b>
 2be:	48 89 c3             	mov    %rax,%rbx
 2c1:	48 8d 85 50 ff ff ff 	lea    -0xb0(%rbp),%rax
 2c8:	48 89 c7             	mov    %rax,%rdi
 2cb:	e8 00 00 00 00       	callq  2d0 <main+0x25a>
 2d0:	48 8d 85 50 fe ff ff 	lea    -0x1b0(%rbp),%rax
 2d7:	48 89 c7             	mov    %rax,%rdi
 2da:	e8 00 00 00 00       	callq  2df <main+0x269>
 2df:	48 89 d8             	mov    %rbx,%rax
 2e2:	48 89 c7             	mov    %rax,%rdi
 2e5:	e8 00 00 00 00       	callq  2ea <main+0x274>
 2ea:	e8 00 00 00 00       	callq  2ef <main+0x279>
 2ef:	48 81 c4 d8 01 00 00 	add    $0x1d8,%rsp
 2f6:	5b                   	pop    %rbx
 2f7:	5d                   	pop    %rbp
 2f8:	c3                   	retq   

00000000000002f9 <_Z41__static_initialization_and_destruction_0ii>:
 2f9:	55                   	push   %rbp
 2fa:	48 89 e5             	mov    %rsp,%rbp
 2fd:	48 83 ec 10          	sub    $0x10,%rsp
 301:	89 7d fc             	mov    %edi,-0x4(%rbp)
 304:	89 75 f8             	mov    %esi,-0x8(%rbp)
 307:	83 7d fc 01          	cmpl   $0x1,-0x4(%rbp)
 30b:	75 27                	jne    334 <_Z41__static_initialization_and_destruction_0ii+0x3b>
 30d:	81 7d f8 ff ff 00 00 	cmpl   $0xffff,-0x8(%rbp)
 314:	75 1e                	jne    334 <_Z41__static_initialization_and_destruction_0ii+0x3b>
 316:	bf 00 00 00 00       	mov    $0x0,%edi
 31b:	e8 00 00 00 00       	callq  320 <_Z41__static_initialization_and_destruction_0ii+0x27>
 320:	ba 00 00 00 00       	mov    $0x0,%edx
 325:	be 00 00 00 00       	mov    $0x0,%esi
 32a:	bf 00 00 00 00       	mov    $0x0,%edi
 32f:	e8 00 00 00 00       	callq  334 <_Z41__static_initialization_and_destruction_0ii+0x3b>
 334:	90                   	nop
 335:	c9                   	leaveq 
 336:	c3                   	retq   

0000000000000337 <_GLOBAL__sub_I_PI>:
 337:	55                   	push   %rbp
 338:	48 89 e5             	mov    %rsp,%rbp
 33b:	be ff ff 00 00       	mov    $0xffff,%esi
 340:	bf 01 00 00 00       	mov    $0x1,%edi
 345:	e8 af ff ff ff       	callq  2f9 <_Z41__static_initialization_and_destruction_0ii>
 34a:	5d                   	pop    %rbp
 34b:	c3                   	retq   

Disassembly of section .text._ZnwmPv:

0000000000000000 <_ZnwmPv>:
   0:	55                   	push   %rbp
   1:	48 89 e5             	mov    %rsp,%rbp
   4:	48 89 7d f8          	mov    %rdi,-0x8(%rbp)
   8:	48 89 75 f0          	mov    %rsi,-0x10(%rbp)
   c:	48 8b 45 f0          	mov    -0x10(%rbp),%rax
  10:	5d                   	pop    %rbp
  11:	c3                   	retq   

Disassembly of section .text._ZdlPvS_:

0000000000000000 <_ZdlPvS_>:
   0:	55                   	push   %rbp
   1:	48 89 e5             	mov    %rsp,%rbp
   4:	48 89 7d f8          	mov    %rdi,-0x8(%rbp)
   8:	48 89 75 f0          	mov    %rsi,-0x10(%rbp)
   c:	90                   	nop
   d:	5d                   	pop    %rbp
   e:	c3                   	retq   

Disassembly of section .text._ZN9ComponentC2ENSt7__cxx1112basic_stringIcSt11char_traitsIcESaIcEEES5_S5_ib:

0000000000000000 <_ZN9ComponentC1ENSt7__cxx1112basic_stringIcSt11char_traitsIcESaIcEEES5_S5_ib>:
   0:	55                   	push   %rbp
   1:	48 89 e5             	mov    %rsp,%rbp
   4:	53                   	push   %rbx
   5:	48 83 ec 38          	sub    $0x38,%rsp
   9:	48 89 7d e8          	mov    %rdi,-0x18(%rbp)
   d:	48 89 75 e0          	mov    %rsi,-0x20(%rbp)
  11:	48 89 55 d8          	mov    %rdx,-0x28(%rbp)
  15:	48 89 4d d0          	mov    %rcx,-0x30(%rbp)
  19:	44 89 45 cc          	mov    %r8d,-0x34(%rbp)
  1d:	44 89 c8             	mov    %r9d,%eax
  20:	88 45 c8             	mov    %al,-0x38(%rbp)
  23:	48 8b 45 e8          	mov    -0x18(%rbp),%rax
  27:	48 83 c0 18          	add    $0x18,%rax
  2b:	48 89 c7             	mov    %rax,%rdi
  2e:	e8 00 00 00 00       	callq  33 <_ZN9ComponentC1ENSt7__cxx1112basic_stringIcSt11char_traitsIcESaIcEEES5_S5_ib+0x33>
  33:	48 8b 45 e8          	mov    -0x18(%rbp),%rax
  37:	48 83 c0 38          	add    $0x38,%rax
  3b:	48 89 c7             	mov    %rax,%rdi
  3e:	e8 00 00 00 00       	callq  43 <_ZN9ComponentC1ENSt7__cxx1112basic_stringIcSt11char_traitsIcESaIcEEES5_S5_ib+0x43>
  43:	48 8b 45 e8          	mov    -0x18(%rbp),%rax
  47:	48 83 c0 58          	add    $0x58,%rax
  4b:	48 89 c7             	mov    %rax,%rdi
  4e:	e8 00 00 00 00       	callq  53 <_ZN9ComponentC1ENSt7__cxx1112basic_stringIcSt11char_traitsIcESaIcEEES5_S5_ib+0x53>
  53:	48 8b 45 e8          	mov    -0x18(%rbp),%rax
  57:	48 8d 50 18          	lea    0x18(%rax),%rdx
  5b:	48 8b 45 e0          	mov    -0x20(%rbp),%rax
  5f:	48 89 c6             	mov    %rax,%rsi
  62:	48 89 d7             	mov    %rdx,%rdi
  65:	e8 00 00 00 00       	callq  6a <_ZN9ComponentC1ENSt7__cxx1112basic_stringIcSt11char_traitsIcESaIcEEES5_S5_ib+0x6a>
  6a:	48 8b 45 e8          	mov    -0x18(%rbp),%rax
  6e:	48 8d 50 38          	lea    0x38(%rax),%rdx
  72:	48 8b 45 d8          	mov    -0x28(%rbp),%rax
  76:	48 89 c6             	mov    %rax,%rsi
  79:	48 89 d7             	mov    %rdx,%rdi
  7c:	e8 00 00 00 00       	callq  81 <_ZN9ComponentC1ENSt7__cxx1112basic_stringIcSt11char_traitsIcESaIcEEES5_S5_ib+0x81>
  81:	48 8b 45 e8          	mov    -0x18(%rbp),%rax
  85:	48 8d 50 58          	lea    0x58(%rax),%rdx
  89:	48 8b 45 d0          	mov    -0x30(%rbp),%rax
  8d:	48 89 c6             	mov    %rax,%rsi
  90:	48 89 d7             	mov    %rdx,%rdi
  93:	e8 00 00 00 00       	callq  98 <_ZN9ComponentC1ENSt7__cxx1112basic_stringIcSt11char_traitsIcESaIcEEES5_S5_ib+0x98>
  98:	48 8b 45 e8          	mov    -0x18(%rbp),%rax
  9c:	8b 55 cc             	mov    -0x34(%rbp),%edx
  9f:	89 50 7c             	mov    %edx,0x7c(%rax)
  a2:	eb 3e                	jmp    e2 <_ZN9ComponentC1ENSt7__cxx1112basic_stringIcSt11char_traitsIcESaIcEEES5_S5_ib+0xe2>
  a4:	48 89 c3             	mov    %rax,%rbx
  a7:	48 8b 45 e8          	mov    -0x18(%rbp),%rax
  ab:	48 83 c0 58          	add    $0x58,%rax
  af:	48 89 c7             	mov    %rax,%rdi
  b2:	e8 00 00 00 00       	callq  b7 <_ZN9ComponentC1ENSt7__cxx1112basic_stringIcSt11char_traitsIcESaIcEEES5_S5_ib+0xb7>
  b7:	48 8b 45 e8          	mov    -0x18(%rbp),%rax
  bb:	48 83 c0 38          	add    $0x38,%rax
  bf:	48 89 c7             	mov    %rax,%rdi
  c2:	e8 00 00 00 00       	callq  c7 <_ZN9ComponentC1ENSt7__cxx1112basic_stringIcSt11char_traitsIcESaIcEEES5_S5_ib+0xc7>
  c7:	48 8b 45 e8          	mov    -0x18(%rbp),%rax
  cb:	48 83 c0 18          	add    $0x18,%rax
  cf:	48 89 c7             	mov    %rax,%rdi
  d2:	e8 00 00 00 00       	callq  d7 <_ZN9ComponentC1ENSt7__cxx1112basic_stringIcSt11char_traitsIcESaIcEEES5_S5_ib+0xd7>
  d7:	48 89 d8             	mov    %rbx,%rax
  da:	48 89 c7             	mov    %rax,%rdi
  dd:	e8 00 00 00 00       	callq  e2 <_ZN9ComponentC1ENSt7__cxx1112basic_stringIcSt11char_traitsIcESaIcEEES5_S5_ib+0xe2>
  e2:	48 83 c4 38          	add    $0x38,%rsp
  e6:	5b                   	pop    %rbx
  e7:	5d                   	pop    %rbp
  e8:	c3                   	retq   

Disassembly of section .text._ZN9ComponentC2Ev:

0000000000000000 <_ZN9ComponentC1Ev>:
   0:	55                   	push   %rbp
   1:	48 89 e5             	mov    %rsp,%rbp
   4:	48 83 ec 10          	sub    $0x10,%rsp
   8:	48 89 7d f8          	mov    %rdi,-0x8(%rbp)
   c:	48 8b 45 f8          	mov    -0x8(%rbp),%rax
  10:	48 83 c0 18          	add    $0x18,%rax
  14:	48 89 c7             	mov    %rax,%rdi
  17:	e8 00 00 00 00       	callq  1c <_ZN9ComponentC1Ev+0x1c>
  1c:	48 8b 45 f8          	mov    -0x8(%rbp),%rax
  20:	48 83 c0 38          	add    $0x38,%rax
  24:	48 89 c7             	mov    %rax,%rdi
  27:	e8 00 00 00 00       	callq  2c <_ZN9ComponentC1Ev+0x2c>
  2c:	48 8b 45 f8          	mov    -0x8(%rbp),%rax
  30:	48 83 c0 58          	add    $0x58,%rax
  34:	48 89 c7             	mov    %rax,%rdi
  37:	e8 00 00 00 00       	callq  3c <_ZN9ComponentC1Ev+0x3c>
  3c:	90                   	nop
  3d:	c9                   	leaveq 
  3e:	c3                   	retq   

Disassembly of section .text._ZN9ComponentD2Ev:

0000000000000000 <_ZN9ComponentD1Ev>:
   0:	55                   	push   %rbp
   1:	48 89 e5             	mov    %rsp,%rbp
   4:	48 83 ec 10          	sub    $0x10,%rsp
   8:	48 89 7d f8          	mov    %rdi,-0x8(%rbp)
   c:	48 8b 45 f8          	mov    -0x8(%rbp),%rax
  10:	48 83 c0 58          	add    $0x58,%rax
  14:	48 89 c7             	mov    %rax,%rdi
  17:	e8 00 00 00 00       	callq  1c <_ZN9ComponentD1Ev+0x1c>
  1c:	48 8b 45 f8          	mov    -0x8(%rbp),%rax
  20:	48 83 c0 38          	add    $0x38,%rax
  24:	48 89 c7             	mov    %rax,%rdi
  27:	e8 00 00 00 00       	callq  2c <_ZN9ComponentD1Ev+0x2c>
  2c:	48 8b 45 f8          	mov    -0x8(%rbp),%rax
  30:	48 83 c0 18          	add    $0x18,%rax
  34:	48 89 c7             	mov    %rax,%rdi
  37:	e8 00 00 00 00       	callq  3c <_ZN9ComponentD1Ev+0x3c>
  3c:	90                   	nop
  3d:	c9                   	leaveq 
  3e:	c3                   	retq   

Disassembly of section .text._ZN6Rocket12AddComponentE9Component:

0000000000000000 <_ZN6Rocket12AddComponentE9Component>:
   0:	55                   	push   %rbp
   1:	48 89 e5             	mov    %rsp,%rbp
   4:	48 83 ec 10          	sub    $0x10,%rsp
   8:	48 89 7d f8          	mov    %rdi,-0x8(%rbp)
   c:	48 89 75 f0          	mov    %rsi,-0x10(%rbp)
  10:	48 8b 45 f8          	mov    -0x8(%rbp),%rax
  14:	48 8d 90 80 00 00 00 	lea    0x80(%rax),%rdx
  1b:	48 8b 45 f0          	mov    -0x10(%rbp),%rax
  1f:	48 89 c6             	mov    %rax,%rsi
  22:	48 89 d7             	mov    %rdx,%rdi
  25:	e8 00 00 00 00       	callq  2a <_ZN6Rocket12AddComponentE9Component+0x2a>
  2a:	90                   	nop
  2b:	c9                   	leaveq 
  2c:	c3                   	retq   

Disassembly of section .text._ZN6Rocket15printComponentsEv:

0000000000000000 <_ZN6Rocket15printComponentsEv>:
   0:	55                   	push   %rbp
   1:	48 89 e5             	mov    %rsp,%rbp
   4:	48 83 ec 20          	sub    $0x20,%rsp
   8:	48 89 7d e8          	mov    %rdi,-0x18(%rbp)
   c:	48 c7 45 f8 00 00 00 	movq   $0x0,-0x8(%rbp)
  13:	00 
  14:	48 8b 45 e8          	mov    -0x18(%rbp),%rax
  18:	48 83 e8 80          	sub    $0xffffffffffffff80,%rax
  1c:	48 89 c7             	mov    %rax,%rdi
  1f:	e8 00 00 00 00       	callq  24 <_ZN6Rocket15printComponentsEv+0x24>
  24:	48 3b 45 f8          	cmp    -0x8(%rbp),%rax
  28:	0f 97 c0             	seta   %al
  2b:	84 c0                	test   %al,%al
  2d:	74 2e                	je     5d <_ZN6Rocket15printComponentsEv+0x5d>
  2f:	48 8b 45 e8          	mov    -0x18(%rbp),%rax
  33:	48 8d 90 80 00 00 00 	lea    0x80(%rax),%rdx
  3a:	48 8b 45 f8          	mov    -0x8(%rbp),%rax
  3e:	48 89 c6             	mov    %rax,%rsi
  41:	48 89 d7             	mov    %rdx,%rdi
  44:	e8 00 00 00 00       	callq  49 <_ZN6Rocket15printComponentsEv+0x49>
  49:	48 89 c6             	mov    %rax,%rsi
  4c:	bf 00 00 00 00       	mov    $0x0,%edi
  51:	e8 00 00 00 00       	callq  56 <_ZN6Rocket15printComponentsEv+0x56>
  56:	48 83 45 f8 01       	addq   $0x1,-0x8(%rbp)
  5b:	eb b7                	jmp    14 <_ZN6Rocket15printComponentsEv+0x14>
  5d:	90                   	nop
  5e:	c9                   	leaveq 
  5f:	c3                   	retq   

Disassembly of section .text._ZN6RocketC2Ev:

0000000000000000 <_ZN6RocketC1Ev>:
   0:	55                   	push   %rbp
   1:	48 89 e5             	mov    %rsp,%rbp
   4:	48 83 ec 10          	sub    $0x10,%rsp
   8:	48 89 7d f8          	mov    %rdi,-0x8(%rbp)
   c:	48 8b 45 f8          	mov    -0x8(%rbp),%rax
  10:	48 89 c7             	mov    %rax,%rdi
  13:	e8 00 00 00 00       	callq  18 <_ZN6RocketC1Ev+0x18>
  18:	48 8b 45 f8          	mov    -0x8(%rbp),%rax
  1c:	48 83 e8 80          	sub    $0xffffffffffffff80,%rax
  20:	48 89 c7             	mov    %rax,%rdi
  23:	e8 00 00 00 00       	callq  28 <_ZN6RocketC1Ev+0x28>
  28:	90                   	nop
  29:	c9                   	leaveq 
  2a:	c3                   	retq   

Disassembly of section .text._ZN6RocketD2Ev:

0000000000000000 <_ZN6RocketD1Ev>:
   0:	55                   	push   %rbp
   1:	48 89 e5             	mov    %rsp,%rbp
   4:	48 83 ec 10          	sub    $0x10,%rsp
   8:	48 89 7d f8          	mov    %rdi,-0x8(%rbp)
   c:	48 8b 45 f8          	mov    -0x8(%rbp),%rax
  10:	48 83 e8 80          	sub    $0xffffffffffffff80,%rax
  14:	48 89 c7             	mov    %rax,%rdi
  17:	e8 00 00 00 00       	callq  1c <_ZN6RocketD1Ev+0x1c>
  1c:	48 8b 45 f8          	mov    -0x8(%rbp),%rax
  20:	48 89 c7             	mov    %rax,%rdi
  23:	e8 00 00 00 00       	callq  28 <_ZN6RocketD1Ev+0x28>
  28:	90                   	nop
  29:	c9                   	leaveq 
  2a:	c3                   	retq   

Disassembly of section .text._ZN9ComponentC2ERKS_:

0000000000000000 <_ZN9ComponentC1ERKS_>:
   0:	55                   	push   %rbp
   1:	48 89 e5             	mov    %rsp,%rbp
   4:	53                   	push   %rbx
   5:	48 83 ec 18          	sub    $0x18,%rsp
   9:	48 89 7d e8          	mov    %rdi,-0x18(%rbp)
   d:	48 89 75 e0          	mov    %rsi,-0x20(%rbp)
  11:	48 8b 45 e0          	mov    -0x20(%rbp),%rax
  15:	48 8b 10             	mov    (%rax),%rdx
  18:	48 8b 45 e8          	mov    -0x18(%rbp),%rax
  1c:	48 89 10             	mov    %rdx,(%rax)
  1f:	48 8b 45 e0          	mov    -0x20(%rbp),%rax
  23:	f3 0f 10 40 08       	movss  0x8(%rax),%xmm0
  28:	48 8b 45 e8          	mov    -0x18(%rbp),%rax
  2c:	f3 0f 11 40 08       	movss  %xmm0,0x8(%rax)
  31:	48 8b 45 e0          	mov    -0x20(%rbp),%rax
  35:	f3 0f 10 40 0c       	movss  0xc(%rax),%xmm0
  3a:	48 8b 45 e8          	mov    -0x18(%rbp),%rax
  3e:	f3 0f 11 40 0c       	movss  %xmm0,0xc(%rax)
  43:	48 8b 45 e0          	mov    -0x20(%rbp),%rax
  47:	f3 0f 10 40 10       	movss  0x10(%rax),%xmm0
  4c:	48 8b 45 e8          	mov    -0x18(%rbp),%rax
  50:	f3 0f 11 40 10       	movss  %xmm0,0x10(%rax)
  55:	48 8b 45 e0          	mov    -0x20(%rbp),%rax
  59:	f3 0f 10 40 14       	movss  0x14(%rax),%xmm0
  5e:	48 8b 45 e8          	mov    -0x18(%rbp),%rax
  62:	f3 0f 11 40 14       	movss  %xmm0,0x14(%rax)
  67:	48 8b 45 e0          	mov    -0x20(%rbp),%rax
  6b:	48 8d 50 18          	lea    0x18(%rax),%rdx
  6f:	48 8b 45 e8          	mov    -0x18(%rbp),%rax
  73:	48 83 c0 18          	add    $0x18,%rax
  77:	48 89 d6             	mov    %rdx,%rsi
  7a:	48 89 c7             	mov    %rax,%rdi
  7d:	e8 00 00 00 00       	callq  82 <_ZN9ComponentC1ERKS_+0x82>
  82:	48 8b 45 e0          	mov    -0x20(%rbp),%rax
  86:	48 8d 50 38          	lea    0x38(%rax),%rdx
  8a:	48 8b 45 e8          	mov    -0x18(%rbp),%rax
  8e:	48 83 c0 38          	add    $0x38,%rax
  92:	48 89 d6             	mov    %rdx,%rsi
  95:	48 89 c7             	mov    %rax,%rdi
  98:	e8 00 00 00 00       	callq  9d <_ZN9ComponentC1ERKS_+0x9d>
  9d:	48 8b 45 e0          	mov    -0x20(%rbp),%rax
  a1:	48 8d 50 58          	lea    0x58(%rax),%rdx
  a5:	48 8b 45 e8          	mov    -0x18(%rbp),%rax
  a9:	48 83 c0 58          	add    $0x58,%rax
  ad:	48 89 d6             	mov    %rdx,%rsi
  b0:	48 89 c7             	mov    %rax,%rdi
  b3:	e8 00 00 00 00       	callq  b8 <_ZN9ComponentC1ERKS_+0xb8>
  b8:	48 8b 45 e0          	mov    -0x20(%rbp),%rax
  bc:	0f b6 50 78          	movzbl 0x78(%rax),%edx
  c0:	48 8b 45 e8          	mov    -0x18(%rbp),%rax
  c4:	88 50 78             	mov    %dl,0x78(%rax)
  c7:	48 8b 45 e0          	mov    -0x20(%rbp),%rax
  cb:	8b 50 7c             	mov    0x7c(%rax),%edx
  ce:	48 8b 45 e8          	mov    -0x18(%rbp),%rax
  d2:	89 50 7c             	mov    %edx,0x7c(%rax)
  d5:	eb 33                	jmp    10a <_ZN9ComponentC1ERKS_+0x10a>
  d7:	48 89 c3             	mov    %rax,%rbx
  da:	48 8b 45 e8          	mov    -0x18(%rbp),%rax
  de:	48 83 c0 38          	add    $0x38,%rax
  e2:	48 89 c7             	mov    %rax,%rdi
  e5:	e8 00 00 00 00       	callq  ea <_ZN9ComponentC1ERKS_+0xea>
  ea:	eb 03                	jmp    ef <_ZN9ComponentC1ERKS_+0xef>
  ec:	48 89 c3             	mov    %rax,%rbx
  ef:	48 8b 45 e8          	mov    -0x18(%rbp),%rax
  f3:	48 83 c0 18          	add    $0x18,%rax
  f7:	48 89 c7             	mov    %rax,%rdi
  fa:	e8 00 00 00 00       	callq  ff <_ZN9ComponentC1ERKS_+0xff>
  ff:	48 89 d8             	mov    %rbx,%rax
 102:	48 89 c7             	mov    %rax,%rdi
 105:	e8 00 00 00 00       	callq  10a <_ZN9ComponentC1ERKS_+0x10a>
 10a:	48 83 c4 18          	add    $0x18,%rsp
 10e:	5b                   	pop    %rbx
 10f:	5d                   	pop    %rbp
 110:	c3                   	retq   

Disassembly of section .text._ZNSt6vectorI9ComponentSaIS0_EEC2Ev:

0000000000000000 <_ZNSt6vectorI9ComponentSaIS0_EEC1Ev>:
   0:	55                   	push   %rbp
   1:	48 89 e5             	mov    %rsp,%rbp
   4:	48 83 ec 10          	sub    $0x10,%rsp
   8:	48 89 7d f8          	mov    %rdi,-0x8(%rbp)
   c:	48 8b 45 f8          	mov    -0x8(%rbp),%rax
  10:	48 89 c7             	mov    %rax,%rdi
  13:	e8 00 00 00 00       	callq  18 <_ZNSt6vectorI9ComponentSaIS0_EEC1Ev+0x18>
  18:	90                   	nop
  19:	c9                   	leaveq 
  1a:	c3                   	retq   

Disassembly of section .text._ZNSt6vectorI9ComponentSaIS0_EED2Ev:

0000000000000000 <_ZNSt6vectorI9ComponentSaIS0_EED1Ev>:
   0:	55                   	push   %rbp
   1:	48 89 e5             	mov    %rsp,%rbp
   4:	48 83 ec 10          	sub    $0x10,%rsp
   8:	48 89 7d f8          	mov    %rdi,-0x8(%rbp)
   c:	48 8b 45 f8          	mov    -0x8(%rbp),%rax
  10:	48 89 c7             	mov    %rax,%rdi
  13:	e8 00 00 00 00       	callq  18 <_ZNSt6vectorI9ComponentSaIS0_EED1Ev+0x18>
  18:	48 89 c2             	mov    %rax,%rdx
  1b:	48 8b 45 f8          	mov    -0x8(%rbp),%rax
  1f:	48 8b 48 08          	mov    0x8(%rax),%rcx
  23:	48 8b 45 f8          	mov    -0x8(%rbp),%rax
  27:	48 8b 00             	mov    (%rax),%rax
  2a:	48 89 ce             	mov    %rcx,%rsi
  2d:	48 89 c7             	mov    %rax,%rdi
  30:	e8 00 00 00 00       	callq  35 <_ZNSt6vectorI9ComponentSaIS0_EED1Ev+0x35>
  35:	48 8b 45 f8          	mov    -0x8(%rbp),%rax
  39:	48 89 c7             	mov    %rax,%rdi
  3c:	e8 00 00 00 00       	callq  41 <_ZNSt6vectorI9ComponentSaIS0_EED1Ev+0x41>
  41:	90                   	nop
  42:	c9                   	leaveq 
  43:	c3                   	retq   

Disassembly of section .text._ZNSt6vectorI9ComponentSaIS0_EE9push_backERKS0_:

0000000000000000 <_ZNSt6vectorI9ComponentSaIS0_EE9push_backERKS0_>:
   0:	55                   	push   %rbp
   1:	48 89 e5             	mov    %rsp,%rbp
   4:	48 83 ec 10          	sub    $0x10,%rsp
   8:	48 89 7d f8          	mov    %rdi,-0x8(%rbp)
   c:	48 89 75 f0          	mov    %rsi,-0x10(%rbp)
  10:	48 8b 45 f8          	mov    -0x8(%rbp),%rax
  14:	48 8b 50 08          	mov    0x8(%rax),%rdx
  18:	48 8b 45 f8          	mov    -0x8(%rbp),%rax
  1c:	48 8b 40 10          	mov    0x10(%rax),%rax
  20:	48 39 c2             	cmp    %rax,%rdx
  23:	74 34                	je     59 <_ZNSt6vectorI9ComponentSaIS0_EE9push_backERKS0_+0x59>
  25:	48 8b 45 f8          	mov    -0x8(%rbp),%rax
  29:	48 8b 48 08          	mov    0x8(%rax),%rcx
  2d:	48 8b 45 f8          	mov    -0x8(%rbp),%rax
  31:	48 8b 55 f0          	mov    -0x10(%rbp),%rdx
  35:	48 89 ce             	mov    %rcx,%rsi
  38:	48 89 c7             	mov    %rax,%rdi
  3b:	e8 00 00 00 00       	callq  40 <_ZNSt6vectorI9ComponentSaIS0_EE9push_backERKS0_+0x40>
  40:	48 8b 45 f8          	mov    -0x8(%rbp),%rax
  44:	48 8b 40 08          	mov    0x8(%rax),%rax
  48:	48 8d 90 80 00 00 00 	lea    0x80(%rax),%rdx
  4f:	48 8b 45 f8          	mov    -0x8(%rbp),%rax
  53:	48 89 50 08          	mov    %rdx,0x8(%rax)
  57:	eb 13                	jmp    6c <_ZNSt6vectorI9ComponentSaIS0_EE9push_backERKS0_+0x6c>
  59:	48 8b 55 f0          	mov    -0x10(%rbp),%rdx
  5d:	48 8b 45 f8          	mov    -0x8(%rbp),%rax
  61:	48 89 d6             	mov    %rdx,%rsi
  64:	48 89 c7             	mov    %rax,%rdi
  67:	e8 00 00 00 00       	callq  6c <_ZNSt6vectorI9ComponentSaIS0_EE9push_backERKS0_+0x6c>
  6c:	90                   	nop
  6d:	c9                   	leaveq 
  6e:	c3                   	retq   

Disassembly of section .text._ZNKSt6vectorI9ComponentSaIS0_EE4sizeEv:

0000000000000000 <_ZNKSt6vectorI9ComponentSaIS0_EE4sizeEv>:
   0:	55                   	push   %rbp
   1:	48 89 e5             	mov    %rsp,%rbp
   4:	48 89 7d f8          	mov    %rdi,-0x8(%rbp)
   8:	48 8b 45 f8          	mov    -0x8(%rbp),%rax
   c:	48 8b 40 08          	mov    0x8(%rax),%rax
  10:	48 89 c2             	mov    %rax,%rdx
  13:	48 8b 45 f8          	mov    -0x8(%rbp),%rax
  17:	48 8b 00             	mov    (%rax),%rax
  1a:	48 29 c2             	sub    %rax,%rdx
  1d:	48 89 d0             	mov    %rdx,%rax
  20:	48 c1 f8 07          	sar    $0x7,%rax
  24:	5d                   	pop    %rbp
  25:	c3                   	retq   

Disassembly of section .text._ZNSt6vectorI9ComponentSaIS0_EEixEm:

0000000000000000 <_ZNSt6vectorI9ComponentSaIS0_EEixEm>:
   0:	55                   	push   %rbp
   1:	48 89 e5             	mov    %rsp,%rbp
   4:	48 89 7d f8          	mov    %rdi,-0x8(%rbp)
   8:	48 89 75 f0          	mov    %rsi,-0x10(%rbp)
   c:	48 8b 45 f8          	mov    -0x8(%rbp),%rax
  10:	48 8b 00             	mov    (%rax),%rax
  13:	48 8b 55 f0          	mov    -0x10(%rbp),%rdx
  17:	48 c1 e2 07          	shl    $0x7,%rdx
  1b:	48 01 d0             	add    %rdx,%rax
  1e:	5d                   	pop    %rbp
  1f:	c3                   	retq   

Disassembly of section .text._ZNSt12_Vector_baseI9ComponentSaIS0_EE12_Vector_implD2Ev:

0000000000000000 <_ZNSt12_Vector_baseI9ComponentSaIS0_EE12_Vector_implD1Ev>:
   0:	55                   	push   %rbp
   1:	48 89 e5             	mov    %rsp,%rbp
   4:	48 83 ec 10          	sub    $0x10,%rsp
   8:	48 89 7d f8          	mov    %rdi,-0x8(%rbp)
   c:	48 8b 45 f8          	mov    -0x8(%rbp),%rax
  10:	48 89 c7             	mov    %rax,%rdi
  13:	e8 00 00 00 00       	callq  18 <_ZNSt12_Vector_baseI9ComponentSaIS0_EE12_Vector_implD1Ev+0x18>
  18:	90                   	nop
  19:	c9                   	leaveq 
  1a:	c3                   	retq   

Disassembly of section .text._ZNSt12_Vector_baseI9ComponentSaIS0_EEC2Ev:

0000000000000000 <_ZNSt12_Vector_baseI9ComponentSaIS0_EEC1Ev>:
   0:	55                   	push   %rbp
   1:	48 89 e5             	mov    %rsp,%rbp
   4:	48 83 ec 10          	sub    $0x10,%rsp
   8:	48 89 7d f8          	mov    %rdi,-0x8(%rbp)
   c:	48 8b 45 f8          	mov    -0x8(%rbp),%rax
  10:	48 89 c7             	mov    %rax,%rdi
  13:	e8 00 00 00 00       	callq  18 <_ZNSt12_Vector_baseI9ComponentSaIS0_EEC1Ev+0x18>
  18:	90                   	nop
  19:	c9                   	leaveq 
  1a:	c3                   	retq   

Disassembly of section .text._ZNSt12_Vector_baseI9ComponentSaIS0_EED2Ev:

0000000000000000 <_ZNSt12_Vector_baseI9ComponentSaIS0_EED1Ev>:
   0:	55                   	push   %rbp
   1:	48 89 e5             	mov    %rsp,%rbp
   4:	48 83 ec 10          	sub    $0x10,%rsp
   8:	48 89 7d f8          	mov    %rdi,-0x8(%rbp)
   c:	48 8b 45 f8          	mov    -0x8(%rbp),%rax
  10:	48 8b 40 10          	mov    0x10(%rax),%rax
  14:	48 89 c2             	mov    %rax,%rdx
  17:	48 8b 45 f8          	mov    -0x8(%rbp),%rax
  1b:	48 8b 00             	mov    (%rax),%rax
  1e:	48 29 c2             	sub    %rax,%rdx
  21:	48 89 d0             	mov    %rdx,%rax
  24:	48 c1 f8 07          	sar    $0x7,%rax
  28:	48 89 c2             	mov    %rax,%rdx
  2b:	48 8b 45 f8          	mov    -0x8(%rbp),%rax
  2f:	48 8b 08             	mov    (%rax),%rcx
  32:	48 8b 45 f8          	mov    -0x8(%rbp),%rax
  36:	48 89 ce             	mov    %rcx,%rsi
  39:	48 89 c7             	mov    %rax,%rdi
  3c:	e8 00 00 00 00       	callq  41 <_ZNSt12_Vector_baseI9ComponentSaIS0_EED1Ev+0x41>
  41:	48 8b 45 f8          	mov    -0x8(%rbp),%rax
  45:	48 89 c7             	mov    %rax,%rdi
  48:	e8 00 00 00 00       	callq  4d <_ZNSt12_Vector_baseI9ComponentSaIS0_EED1Ev+0x4d>
  4d:	90                   	nop
  4e:	c9                   	leaveq 
  4f:	c3                   	retq   

Disassembly of section .text._ZNSt12_Vector_baseI9ComponentSaIS0_EE19_M_get_Tp_allocatorEv:

0000000000000000 <_ZNSt12_Vector_baseI9ComponentSaIS0_EE19_M_get_Tp_allocatorEv>:
   0:	55                   	push   %rbp
   1:	48 89 e5             	mov    %rsp,%rbp
   4:	48 89 7d f8          	mov    %rdi,-0x8(%rbp)
   8:	48 8b 45 f8          	mov    -0x8(%rbp),%rax
   c:	5d                   	pop    %rbp
   d:	c3                   	retq   

Disassembly of section .text._ZSt8_DestroyIP9ComponentS0_EvT_S2_RSaIT0_E:

0000000000000000 <_ZSt8_DestroyIP9ComponentS0_EvT_S2_RSaIT0_E>:
   0:	55                   	push   %rbp
   1:	48 89 e5             	mov    %rsp,%rbp
   4:	48 83 ec 20          	sub    $0x20,%rsp
   8:	48 89 7d f8          	mov    %rdi,-0x8(%rbp)
   c:	48 89 75 f0          	mov    %rsi,-0x10(%rbp)
  10:	48 89 55 e8          	mov    %rdx,-0x18(%rbp)
  14:	48 8b 55 f0          	mov    -0x10(%rbp),%rdx
  18:	48 8b 45 f8          	mov    -0x8(%rbp),%rax
  1c:	48 89 d6             	mov    %rdx,%rsi
  1f:	48 89 c7             	mov    %rax,%rdi
  22:	e8 00 00 00 00       	callq  27 <_ZSt8_DestroyIP9ComponentS0_EvT_S2_RSaIT0_E+0x27>
  27:	90                   	nop
  28:	c9                   	leaveq 
  29:	c3                   	retq   

Disassembly of section .text._ZSt7forwardIRK9ComponentEOT_RNSt16remove_referenceIS3_E4typeE:

0000000000000000 <_ZSt7forwardIRK9ComponentEOT_RNSt16remove_referenceIS3_E4typeE>:
   0:	55                   	push   %rbp
   1:	48 89 e5             	mov    %rsp,%rbp
   4:	48 89 7d f8          	mov    %rdi,-0x8(%rbp)
   8:	48 8b 45 f8          	mov    -0x8(%rbp),%rax
   c:	5d                   	pop    %rbp
   d:	c3                   	retq   

Disassembly of section .text._ZNSt16allocator_traitsISaI9ComponentEE9constructIS0_JRKS0_EEEvRS1_PT_DpOT0_:

0000000000000000 <_ZNSt16allocator_traitsISaI9ComponentEE9constructIS0_IRKS0_EEEvRS1_PT_DpOT0_>:
   0:	55                   	push   %rbp
   1:	48 89 e5             	mov    %rsp,%rbp
   4:	48 83 ec 20          	sub    $0x20,%rsp
   8:	48 89 7d f8          	mov    %rdi,-0x8(%rbp)
   c:	48 89 75 f0          	mov    %rsi,-0x10(%rbp)
  10:	48 89 55 e8          	mov    %rdx,-0x18(%rbp)
  14:	48 8b 45 e8          	mov    -0x18(%rbp),%rax
  18:	48 89 c7             	mov    %rax,%rdi
  1b:	e8 00 00 00 00       	callq  20 <_ZNSt16allocator_traitsISaI9ComponentEE9constructIS0_IRKS0_EEEvRS1_PT_DpOT0_+0x20>
  20:	48 89 c2             	mov    %rax,%rdx
  23:	48 8b 4d f0          	mov    -0x10(%rbp),%rcx
  27:	48 8b 45 f8          	mov    -0x8(%rbp),%rax
  2b:	48 89 ce             	mov    %rcx,%rsi
  2e:	48 89 c7             	mov    %rax,%rdi
  31:	e8 00 00 00 00       	callq  36 <_ZNSt16allocator_traitsISaI9ComponentEE9constructIS0_IRKS0_EEEvRS1_PT_DpOT0_+0x36>
  36:	90                   	nop
  37:	c9                   	leaveq 
  38:	c3                   	retq   

Disassembly of section .text._ZNSt6vectorI9ComponentSaIS0_EE19_M_emplace_back_auxIJRKS0_EEEvDpOT_:

0000000000000000 <_ZNSt6vectorI9ComponentSaIS0_EE19_M_emplace_back_auxIIRKS0_EEEvDpOT_>:
   0:	55                   	push   %rbp
   1:	48 89 e5             	mov    %rsp,%rbp
   4:	53                   	push   %rbx
   5:	48 83 ec 38          	sub    $0x38,%rsp
   9:	48 89 7d c8          	mov    %rdi,-0x38(%rbp)
   d:	48 89 75 c0          	mov    %rsi,-0x40(%rbp)
  11:	48 8b 45 c8          	mov    -0x38(%rbp),%rax
  15:	ba 00 00 00 00       	mov    $0x0,%edx
  1a:	be 01 00 00 00       	mov    $0x1,%esi
  1f:	48 89 c7             	mov    %rax,%rdi
  22:	e8 00 00 00 00       	callq  27 <_ZNSt6vectorI9ComponentSaIS0_EE19_M_emplace_back_auxIIRKS0_EEEvDpOT_+0x27>
  27:	48 89 45 e0          	mov    %rax,-0x20(%rbp)
  2b:	48 8b 45 c8          	mov    -0x38(%rbp),%rax
  2f:	48 8b 55 e0          	mov    -0x20(%rbp),%rdx
  33:	48 89 d6             	mov    %rdx,%rsi
  36:	48 89 c7             	mov    %rax,%rdi
  39:	e8 00 00 00 00       	callq  3e <_ZNSt6vectorI9ComponentSaIS0_EE19_M_emplace_back_auxIIRKS0_EEEvDpOT_+0x3e>
  3e:	48 89 45 e8          	mov    %rax,-0x18(%rbp)
  42:	48 8b 45 e8          	mov    -0x18(%rbp),%rax
  46:	48 89 45 d8          	mov    %rax,-0x28(%rbp)
  4a:	48 8b 45 c0          	mov    -0x40(%rbp),%rax
  4e:	48 89 c7             	mov    %rax,%rdi
  51:	e8 00 00 00 00       	callq  56 <_ZNSt6vectorI9ComponentSaIS0_EE19_M_emplace_back_auxIIRKS0_EEEvDpOT_+0x56>
  56:	48 89 c3             	mov    %rax,%rbx
  59:	48 8b 45 c8          	mov    -0x38(%rbp),%rax
  5d:	48 89 c7             	mov    %rax,%rdi
  60:	e8 00 00 00 00       	callq  65 <_ZNSt6vectorI9ComponentSaIS0_EE19_M_emplace_back_auxIIRKS0_EEEvDpOT_+0x65>
  65:	48 c1 e0 07          	shl    $0x7,%rax
  69:	48 89 c2             	mov    %rax,%rdx
  6c:	48 8b 45 e8          	mov    -0x18(%rbp),%rax
  70:	48 8d 0c 02          	lea    (%rdx,%rax,1),%rcx
  74:	48 8b 45 c8          	mov    -0x38(%rbp),%rax
  78:	48 89 da             	mov    %rbx,%rdx
  7b:	48 89 ce             	mov    %rcx,%rsi
  7e:	48 89 c7             	mov    %rax,%rdi
  81:	e8 00 00 00 00       	callq  86 <_ZNSt6vectorI9ComponentSaIS0_EE19_M_emplace_back_auxIIRKS0_EEEvDpOT_+0x86>
  86:	48 c7 45 d8 00 00 00 	movq   $0x0,-0x28(%rbp)
  8d:	00 
  8e:	48 8b 45 c8          	mov    -0x38(%rbp),%rax
  92:	48 89 c7             	mov    %rax,%rdi
  95:	e8 00 00 00 00       	callq  9a <_ZNSt6vectorI9ComponentSaIS0_EE19_M_emplace_back_auxIIRKS0_EEEvDpOT_+0x9a>
  9a:	48 89 c1             	mov    %rax,%rcx
  9d:	48 8b 45 c8          	mov    -0x38(%rbp),%rax
  a1:	48 8b 70 08          	mov    0x8(%rax),%rsi
  a5:	48 8b 45 c8          	mov    -0x38(%rbp),%rax
  a9:	48 8b 00             	mov    (%rax),%rax
  ac:	48 8b 55 e8          	mov    -0x18(%rbp),%rdx
  b0:	48 89 c7             	mov    %rax,%rdi
  b3:	e8 00 00 00 00       	callq  b8 <_ZNSt6vectorI9ComponentSaIS0_EE19_M_emplace_back_auxIIRKS0_EEEvDpOT_+0xb8>
  b8:	48 89 45 d8          	mov    %rax,-0x28(%rbp)
  bc:	48 83 6d d8 80       	subq   $0xffffffffffffff80,-0x28(%rbp)
  c1:	48 8b 45 c8          	mov    -0x38(%rbp),%rax
  c5:	48 89 c7             	mov    %rax,%rdi
  c8:	e8 00 00 00 00       	callq  cd <_ZNSt6vectorI9ComponentSaIS0_EE19_M_emplace_back_auxIIRKS0_EEEvDpOT_+0xcd>
  cd:	48 89 c2             	mov    %rax,%rdx
  d0:	48 8b 45 c8          	mov    -0x38(%rbp),%rax
  d4:	48 8b 48 08          	mov    0x8(%rax),%rcx
  d8:	48 8b 45 c8          	mov    -0x38(%rbp),%rax
  dc:	48 8b 00             	mov    (%rax),%rax
  df:	48 89 ce             	mov    %rcx,%rsi
  e2:	48 89 c7             	mov    %rax,%rdi
  e5:	e8 00 00 00 00       	callq  ea <_ZNSt6vectorI9ComponentSaIS0_EE19_M_emplace_back_auxIIRKS0_EEEvDpOT_+0xea>
  ea:	48 8b 45 c8          	mov    -0x38(%rbp),%rax
  ee:	48 8b 40 10          	mov    0x10(%rax),%rax
  f2:	48 89 c2             	mov    %rax,%rdx
  f5:	48 8b 45 c8          	mov    -0x38(%rbp),%rax
  f9:	48 8b 00             	mov    (%rax),%rax
  fc:	48 29 c2             	sub    %rax,%rdx
  ff:	48 89 d0             	mov    %rdx,%rax
 102:	48 c1 f8 07          	sar    $0x7,%rax
 106:	48 89 c2             	mov    %rax,%rdx
 109:	48 8b 45 c8          	mov    -0x38(%rbp),%rax
 10d:	48 8b 08             	mov    (%rax),%rcx
 110:	48 8b 45 c8          	mov    -0x38(%rbp),%rax
 114:	48 89 ce             	mov    %rcx,%rsi
 117:	48 89 c7             	mov    %rax,%rdi
 11a:	e8 00 00 00 00       	callq  11f <_ZNSt6vectorI9ComponentSaIS0_EE19_M_emplace_back_auxIIRKS0_EEEvDpOT_+0x11f>
 11f:	48 8b 45 c8          	mov    -0x38(%rbp),%rax
 123:	48 8b 55 e8          	mov    -0x18(%rbp),%rdx
 127:	48 89 10             	mov    %rdx,(%rax)
 12a:	48 8b 45 c8          	mov    -0x38(%rbp),%rax
 12e:	48 8b 55 d8          	mov    -0x28(%rbp),%rdx
 132:	48 89 50 08          	mov    %rdx,0x8(%rax)
 136:	48 8b 45 e0          	mov    -0x20(%rbp),%rax
 13a:	48 c1 e0 07          	shl    $0x7,%rax
 13e:	48 89 c2             	mov    %rax,%rdx
 141:	48 8b 45 e8          	mov    -0x18(%rbp),%rax
 145:	48 01 c2             	add    %rax,%rdx
 148:	48 8b 45 c8          	mov    -0x38(%rbp),%rax
 14c:	48 89 50 10          	mov    %rdx,0x10(%rax)
 150:	e9 8b 00 00 00       	jmpq   1e0 <_ZNSt6vectorI9ComponentSaIS0_EE19_M_emplace_back_auxIIRKS0_EEEvDpOT_+0x1e0>
 155:	48 89 c7             	mov    %rax,%rdi
 158:	e8 00 00 00 00       	callq  15d <_ZNSt6vectorI9ComponentSaIS0_EE19_M_emplace_back_auxIIRKS0_EEEvDpOT_+0x15d>
 15d:	48 83 7d d8 00       	cmpq   $0x0,-0x28(%rbp)
 162:	75 2b                	jne    18f <_ZNSt6vectorI9ComponentSaIS0_EE19_M_emplace_back_auxIIRKS0_EEEvDpOT_+0x18f>
 164:	48 8b 45 c8          	mov    -0x38(%rbp),%rax
 168:	48 89 c7             	mov    %rax,%rdi
 16b:	e8 00 00 00 00       	callq  170 <_ZNSt6vectorI9ComponentSaIS0_EE19_M_emplace_back_auxIIRKS0_EEEvDpOT_+0x170>
 170:	48 c1 e0 07          	shl    $0x7,%rax
 174:	48 89 c2             	mov    %rax,%rdx
 177:	48 8b 45 e8          	mov    -0x18(%rbp),%rax
 17b:	48 01 c2             	add    %rax,%rdx
 17e:	48 8b 45 c8          	mov    -0x38(%rbp),%rax
 182:	48 89 d6             	mov    %rdx,%rsi
 185:	48 89 c7             	mov    %rax,%rdi
 188:	e8 00 00 00 00       	callq  18d <_ZNSt6vectorI9ComponentSaIS0_EE19_M_emplace_back_auxIIRKS0_EEEvDpOT_+0x18d>
 18d:	eb 22                	jmp    1b1 <_ZNSt6vectorI9ComponentSaIS0_EE19_M_emplace_back_auxIIRKS0_EEEvDpOT_+0x1b1>
 18f:	48 8b 45 c8          	mov    -0x38(%rbp),%rax
 193:	48 89 c7             	mov    %rax,%rdi
 196:	e8 00 00 00 00       	callq  19b <_ZNSt6vectorI9ComponentSaIS0_EE19_M_emplace_back_auxIIRKS0_EEEvDpOT_+0x19b>
 19b:	48 89 c2             	mov    %rax,%rdx
 19e:	48 8b 4d d8          	mov    -0x28(%rbp),%rcx
 1a2:	48 8b 45 e8          	mov    -0x18(%rbp),%rax
 1a6:	48 89 ce             	mov    %rcx,%rsi
 1a9:	48 89 c7             	mov    %rax,%rdi
 1ac:	e8 00 00 00 00       	callq  1b1 <_ZNSt6vectorI9ComponentSaIS0_EE19_M_emplace_back_auxIIRKS0_EEEvDpOT_+0x1b1>
 1b1:	48 8b 45 c8          	mov    -0x38(%rbp),%rax
 1b5:	48 8b 55 e0          	mov    -0x20(%rbp),%rdx
 1b9:	48 8b 4d e8          	mov    -0x18(%rbp),%rcx
 1bd:	48 89 ce             	mov    %rcx,%rsi
 1c0:	48 89 c7             	mov    %rax,%rdi
 1c3:	e8 00 00 00 00       	callq  1c8 <_ZNSt6vectorI9ComponentSaIS0_EE19_M_emplace_back_auxIIRKS0_EEEvDpOT_+0x1c8>
 1c8:	e8 00 00 00 00       	callq  1cd <_ZNSt6vectorI9ComponentSaIS0_EE19_M_emplace_back_auxIIRKS0_EEEvDpOT_+0x1cd>
 1cd:	48 89 c3             	mov    %rax,%rbx
 1d0:	e8 00 00 00 00       	callq  1d5 <_ZNSt6vectorI9ComponentSaIS0_EE19_M_emplace_back_auxIIRKS0_EEEvDpOT_+0x1d5>
 1d5:	48 89 d8             	mov    %rbx,%rax
 1d8:	48 89 c7             	mov    %rax,%rdi
 1db:	e8 00 00 00 00       	callq  1e0 <_ZNSt6vectorI9ComponentSaIS0_EE19_M_emplace_back_auxIIRKS0_EEEvDpOT_+0x1e0>
 1e0:	48 83 c4 38          	add    $0x38,%rsp
 1e4:	5b                   	pop    %rbx
 1e5:	5d                   	pop    %rbp
 1e6:	c3                   	retq   

Disassembly of section .text._ZNSt12_Vector_baseI9ComponentSaIS0_EE12_Vector_implC2Ev:

0000000000000000 <_ZNSt12_Vector_baseI9ComponentSaIS0_EE12_Vector_implC1Ev>:
   0:	55                   	push   %rbp
   1:	48 89 e5             	mov    %rsp,%rbp
   4:	48 83 ec 10          	sub    $0x10,%rsp
   8:	48 89 7d f8          	mov    %rdi,-0x8(%rbp)
   c:	48 8b 45 f8          	mov    -0x8(%rbp),%rax
  10:	48 89 c7             	mov    %rax,%rdi
  13:	e8 00 00 00 00       	callq  18 <_ZNSt12_Vector_baseI9ComponentSaIS0_EE12_Vector_implC1Ev+0x18>
  18:	48 8b 45 f8          	mov    -0x8(%rbp),%rax
  1c:	48 c7 00 00 00 00 00 	movq   $0x0,(%rax)
  23:	48 8b 45 f8          	mov    -0x8(%rbp),%rax
  27:	48 c7 40 08 00 00 00 	movq   $0x0,0x8(%rax)
  2e:	00 
  2f:	48 8b 45 f8          	mov    -0x8(%rbp),%rax
  33:	48 c7 40 10 00 00 00 	movq   $0x0,0x10(%rax)
  3a:	00 
  3b:	90                   	nop
  3c:	c9                   	leaveq 
  3d:	c3                   	retq   

Disassembly of section .text._ZNSaI9ComponentED2Ev:

0000000000000000 <_ZNSaI9ComponentED1Ev>:
   0:	55                   	push   %rbp
   1:	48 89 e5             	mov    %rsp,%rbp
   4:	48 83 ec 10          	sub    $0x10,%rsp
   8:	48 89 7d f8          	mov    %rdi,-0x8(%rbp)
   c:	48 8b 45 f8          	mov    -0x8(%rbp),%rax
  10:	48 89 c7             	mov    %rax,%rdi
  13:	e8 00 00 00 00       	callq  18 <_ZNSaI9ComponentED1Ev+0x18>
  18:	90                   	nop
  19:	c9                   	leaveq 
  1a:	c3                   	retq   

Disassembly of section .text._ZNSt12_Vector_baseI9ComponentSaIS0_EE13_M_deallocateEPS0_m:

0000000000000000 <_ZNSt12_Vector_baseI9ComponentSaIS0_EE13_M_deallocateEPS0_m>:
   0:	55                   	push   %rbp
   1:	48 89 e5             	mov    %rsp,%rbp
   4:	48 83 ec 20          	sub    $0x20,%rsp
   8:	48 89 7d f8          	mov    %rdi,-0x8(%rbp)
   c:	48 89 75 f0          	mov    %rsi,-0x10(%rbp)
  10:	48 89 55 e8          	mov    %rdx,-0x18(%rbp)
  14:	48 83 7d f0 00       	cmpq   $0x0,-0x10(%rbp)
  19:	74 17                	je     32 <_ZNSt12_Vector_baseI9ComponentSaIS0_EE13_M_deallocateEPS0_m+0x32>
  1b:	48 8b 45 f8          	mov    -0x8(%rbp),%rax
  1f:	48 8b 55 e8          	mov    -0x18(%rbp),%rdx
  23:	48 8b 4d f0          	mov    -0x10(%rbp),%rcx
  27:	48 89 ce             	mov    %rcx,%rsi
  2a:	48 89 c7             	mov    %rax,%rdi
  2d:	e8 00 00 00 00       	callq  32 <_ZNSt12_Vector_baseI9ComponentSaIS0_EE13_M_deallocateEPS0_m+0x32>
  32:	90                   	nop
  33:	c9                   	leaveq 
  34:	c3                   	retq   

Disassembly of section .text._ZSt8_DestroyIP9ComponentEvT_S2_:

0000000000000000 <_ZSt8_DestroyIP9ComponentEvT_S2_>:
   0:	55                   	push   %rbp
   1:	48 89 e5             	mov    %rsp,%rbp
   4:	48 83 ec 10          	sub    $0x10,%rsp
   8:	48 89 7d f8          	mov    %rdi,-0x8(%rbp)
   c:	48 89 75 f0          	mov    %rsi,-0x10(%rbp)
  10:	48 8b 55 f0          	mov    -0x10(%rbp),%rdx
  14:	48 8b 45 f8          	mov    -0x8(%rbp),%rax
  18:	48 89 d6             	mov    %rdx,%rsi
  1b:	48 89 c7             	mov    %rax,%rdi
  1e:	e8 00 00 00 00       	callq  23 <_ZSt8_DestroyIP9ComponentEvT_S2_+0x23>
  23:	90                   	nop
  24:	c9                   	leaveq 
  25:	c3                   	retq   

Disassembly of section .text._ZN9__gnu_cxx13new_allocatorI9ComponentE9constructIS1_JRKS1_EEEvPT_DpOT0_:

0000000000000000 <_ZN9__gnu_cxx13new_allocatorI9ComponentE9constructIS1_IRKS1_EEEvPT_DpOT0_>:
   0:	55                   	push   %rbp
   1:	48 89 e5             	mov    %rsp,%rbp
   4:	41 55                	push   %r13
   6:	41 54                	push   %r12
   8:	53                   	push   %rbx
   9:	48 83 ec 28          	sub    $0x28,%rsp
   d:	48 89 7d d8          	mov    %rdi,-0x28(%rbp)
  11:	48 89 75 d0          	mov    %rsi,-0x30(%rbp)
  15:	48 89 55 c8          	mov    %rdx,-0x38(%rbp)
  19:	48 8b 45 c8          	mov    -0x38(%rbp),%rax
  1d:	48 89 c7             	mov    %rax,%rdi
  20:	e8 00 00 00 00       	callq  25 <_ZN9__gnu_cxx13new_allocatorI9ComponentE9constructIS1_IRKS1_EEEvPT_DpOT0_+0x25>
  25:	49 89 c5             	mov    %rax,%r13
  28:	4c 8b 65 d0          	mov    -0x30(%rbp),%r12
  2c:	4c 89 e6             	mov    %r12,%rsi
  2f:	bf 80 00 00 00       	mov    $0x80,%edi
  34:	e8 00 00 00 00       	callq  39 <_ZN9__gnu_cxx13new_allocatorI9ComponentE9constructIS1_IRKS1_EEEvPT_DpOT0_+0x39>
  39:	48 89 c3             	mov    %rax,%rbx
  3c:	48 85 db             	test   %rbx,%rbx
  3f:	74 26                	je     67 <_ZN9__gnu_cxx13new_allocatorI9ComponentE9constructIS1_IRKS1_EEEvPT_DpOT0_+0x67>
  41:	4c 89 ee             	mov    %r13,%rsi
  44:	48 89 df             	mov    %rbx,%rdi
  47:	e8 00 00 00 00       	callq  4c <_ZN9__gnu_cxx13new_allocatorI9ComponentE9constructIS1_IRKS1_EEEvPT_DpOT0_+0x4c>
  4c:	eb 19                	jmp    67 <_ZN9__gnu_cxx13new_allocatorI9ComponentE9constructIS1_IRKS1_EEEvPT_DpOT0_+0x67>
  4e:	49 89 c5             	mov    %rax,%r13
  51:	4c 89 e6             	mov    %r12,%rsi
  54:	48 89 df             	mov    %rbx,%rdi
  57:	e8 00 00 00 00       	callq  5c <_ZN9__gnu_cxx13new_allocatorI9ComponentE9constructIS1_IRKS1_EEEvPT_DpOT0_+0x5c>
  5c:	4c 89 e8             	mov    %r13,%rax
  5f:	48 89 c7             	mov    %rax,%rdi
  62:	e8 00 00 00 00       	callq  67 <_ZN9__gnu_cxx13new_allocatorI9ComponentE9constructIS1_IRKS1_EEEvPT_DpOT0_+0x67>
  67:	90                   	nop
  68:	48 83 c4 28          	add    $0x28,%rsp
  6c:	5b                   	pop    %rbx
  6d:	41 5c                	pop    %r12
  6f:	41 5d                	pop    %r13
  71:	5d                   	pop    %rbp
  72:	c3                   	retq   

Disassembly of section .text._ZNKSt6vectorI9ComponentSaIS0_EE12_M_check_lenEmPKc:

0000000000000000 <_ZNKSt6vectorI9ComponentSaIS0_EE12_M_check_lenEmPKc>:
   0:	55                   	push   %rbp
   1:	48 89 e5             	mov    %rsp,%rbp
   4:	53                   	push   %rbx
   5:	48 83 ec 48          	sub    $0x48,%rsp
   9:	48 89 7d c8          	mov    %rdi,-0x38(%rbp)
   d:	48 89 75 c0          	mov    %rsi,-0x40(%rbp)
  11:	48 89 55 b8          	mov    %rdx,-0x48(%rbp)
  15:	64 48 8b 04 25 28 00 	mov    %fs:0x28,%rax
  1c:	00 00 
  1e:	48 89 45 e8          	mov    %rax,-0x18(%rbp)
  22:	31 c0                	xor    %eax,%eax
  24:	48 8b 45 c8          	mov    -0x38(%rbp),%rax
  28:	48 89 c7             	mov    %rax,%rdi
  2b:	e8 00 00 00 00       	callq  30 <_ZNKSt6vectorI9ComponentSaIS0_EE12_M_check_lenEmPKc+0x30>
  30:	48 89 c3             	mov    %rax,%rbx
  33:	48 8b 45 c8          	mov    -0x38(%rbp),%rax
  37:	48 89 c7             	mov    %rax,%rdi
  3a:	e8 00 00 00 00       	callq  3f <_ZNKSt6vectorI9ComponentSaIS0_EE12_M_check_lenEmPKc+0x3f>
  3f:	48 29 c3             	sub    %rax,%rbx
  42:	48 89 da             	mov    %rbx,%rdx
  45:	48 8b 45 c0          	mov    -0x40(%rbp),%rax
  49:	48 39 c2             	cmp    %rax,%rdx
  4c:	0f 92 c0             	setb   %al
  4f:	84 c0                	test   %al,%al
  51:	74 0c                	je     5f <_ZNKSt6vectorI9ComponentSaIS0_EE12_M_check_lenEmPKc+0x5f>
  53:	48 8b 45 b8          	mov    -0x48(%rbp),%rax
  57:	48 89 c7             	mov    %rax,%rdi
  5a:	e8 00 00 00 00       	callq  5f <_ZNKSt6vectorI9ComponentSaIS0_EE12_M_check_lenEmPKc+0x5f>
  5f:	48 8b 45 c8          	mov    -0x38(%rbp),%rax
  63:	48 89 c7             	mov    %rax,%rdi
  66:	e8 00 00 00 00       	callq  6b <_ZNKSt6vectorI9ComponentSaIS0_EE12_M_check_lenEmPKc+0x6b>
  6b:	48 89 c3             	mov    %rax,%rbx
  6e:	48 8b 45 c8          	mov    -0x38(%rbp),%rax
  72:	48 89 c7             	mov    %rax,%rdi
  75:	e8 00 00 00 00       	callq  7a <_ZNKSt6vectorI9ComponentSaIS0_EE12_M_check_lenEmPKc+0x7a>
  7a:	48 89 45 d8          	mov    %rax,-0x28(%rbp)
  7e:	48 8d 55 c0          	lea    -0x40(%rbp),%rdx
  82:	48 8d 45 d8          	lea    -0x28(%rbp),%rax
  86:	48 89 d6             	mov    %rdx,%rsi
  89:	48 89 c7             	mov    %rax,%rdi
  8c:	e8 00 00 00 00       	callq  91 <_ZNKSt6vectorI9ComponentSaIS0_EE12_M_check_lenEmPKc+0x91>
  91:	48 8b 00             	mov    (%rax),%rax
  94:	48 01 d8             	add    %rbx,%rax
  97:	48 89 45 e0          	mov    %rax,-0x20(%rbp)
  9b:	48 8b 45 c8          	mov    -0x38(%rbp),%rax
  9f:	48 89 c7             	mov    %rax,%rdi
  a2:	e8 00 00 00 00       	callq  a7 <_ZNKSt6vectorI9ComponentSaIS0_EE12_M_check_lenEmPKc+0xa7>
  a7:	48 3b 45 e0          	cmp    -0x20(%rbp),%rax
  ab:	77 12                	ja     bf <_ZNKSt6vectorI9ComponentSaIS0_EE12_M_check_lenEmPKc+0xbf>
  ad:	48 8b 45 c8          	mov    -0x38(%rbp),%rax
  b1:	48 89 c7             	mov    %rax,%rdi
  b4:	e8 00 00 00 00       	callq  b9 <_ZNKSt6vectorI9ComponentSaIS0_EE12_M_check_lenEmPKc+0xb9>
  b9:	48 3b 45 e0          	cmp    -0x20(%rbp),%rax
  bd:	73 0e                	jae    cd <_ZNKSt6vectorI9ComponentSaIS0_EE12_M_check_lenEmPKc+0xcd>
  bf:	48 8b 45 c8          	mov    -0x38(%rbp),%rax
  c3:	48 89 c7             	mov    %rax,%rdi
  c6:	e8 00 00 00 00       	callq  cb <_ZNKSt6vectorI9ComponentSaIS0_EE12_M_check_lenEmPKc+0xcb>
  cb:	eb 04                	jmp    d1 <_ZNKSt6vectorI9ComponentSaIS0_EE12_M_check_lenEmPKc+0xd1>
  cd:	48 8b 45 e0          	mov    -0x20(%rbp),%rax
  d1:	48 8b 4d e8          	mov    -0x18(%rbp),%rcx
  d5:	64 48 33 0c 25 28 00 	xor    %fs:0x28,%rcx
  dc:	00 00 
  de:	74 05                	je     e5 <_ZNKSt6vectorI9ComponentSaIS0_EE12_M_check_lenEmPKc+0xe5>
  e0:	e8 00 00 00 00       	callq  e5 <_ZNKSt6vectorI9ComponentSaIS0_EE12_M_check_lenEmPKc+0xe5>
  e5:	48 83 c4 48          	add    $0x48,%rsp
  e9:	5b                   	pop    %rbx
  ea:	5d                   	pop    %rbp
  eb:	c3                   	retq   

Disassembly of section .text._ZNSt12_Vector_baseI9ComponentSaIS0_EE11_M_allocateEm:

0000000000000000 <_ZNSt12_Vector_baseI9ComponentSaIS0_EE11_M_allocateEm>:
   0:	55                   	push   %rbp
   1:	48 89 e5             	mov    %rsp,%rbp
   4:	48 83 ec 10          	sub    $0x10,%rsp
   8:	48 89 7d f8          	mov    %rdi,-0x8(%rbp)
   c:	48 89 75 f0          	mov    %rsi,-0x10(%rbp)
  10:	48 83 7d f0 00       	cmpq   $0x0,-0x10(%rbp)
  15:	74 15                	je     2c <_ZNSt12_Vector_baseI9ComponentSaIS0_EE11_M_allocateEm+0x2c>
  17:	48 8b 45 f8          	mov    -0x8(%rbp),%rax
  1b:	48 8b 55 f0          	mov    -0x10(%rbp),%rdx
  1f:	48 89 d6             	mov    %rdx,%rsi
  22:	48 89 c7             	mov    %rax,%rdi
  25:	e8 00 00 00 00       	callq  2a <_ZNSt12_Vector_baseI9ComponentSaIS0_EE11_M_allocateEm+0x2a>
  2a:	eb 05                	jmp    31 <_ZNSt12_Vector_baseI9ComponentSaIS0_EE11_M_allocateEm+0x31>
  2c:	b8 00 00 00 00       	mov    $0x0,%eax
  31:	c9                   	leaveq 
  32:	c3                   	retq   

Disassembly of section .text._ZSt34__uninitialized_move_if_noexcept_aIP9ComponentS1_SaIS0_EET0_T_S4_S3_RT1_:

0000000000000000 <_ZSt34__uninitialized_move_if_noexcept_aIP9ComponentS1_SaIS0_EET0_T_S4_S3_RT1_>:
   0:	55                   	push   %rbp
   1:	48 89 e5             	mov    %rsp,%rbp
   4:	53                   	push   %rbx
   5:	48 83 ec 28          	sub    $0x28,%rsp
   9:	48 89 7d e8          	mov    %rdi,-0x18(%rbp)
   d:	48 89 75 e0          	mov    %rsi,-0x20(%rbp)
  11:	48 89 55 d8          	mov    %rdx,-0x28(%rbp)
  15:	48 89 4d d0          	mov    %rcx,-0x30(%rbp)
  19:	48 8b 45 e0          	mov    -0x20(%rbp),%rax
  1d:	48 89 c7             	mov    %rax,%rdi
  20:	e8 00 00 00 00       	callq  25 <_ZSt34__uninitialized_move_if_noexcept_aIP9ComponentS1_SaIS0_EET0_T_S4_S3_RT1_+0x25>
  25:	48 89 c3             	mov    %rax,%rbx
  28:	48 8b 45 e8          	mov    -0x18(%rbp),%rax
  2c:	48 89 c7             	mov    %rax,%rdi
  2f:	e8 00 00 00 00       	callq  34 <_ZSt34__uninitialized_move_if_noexcept_aIP9ComponentS1_SaIS0_EET0_T_S4_S3_RT1_+0x34>
  34:	48 89 c7             	mov    %rax,%rdi
  37:	48 8b 55 d0          	mov    -0x30(%rbp),%rdx
  3b:	48 8b 45 d8          	mov    -0x28(%rbp),%rax
  3f:	48 89 d1             	mov    %rdx,%rcx
  42:	48 89 c2             	mov    %rax,%rdx
  45:	48 89 de             	mov    %rbx,%rsi
  48:	e8 00 00 00 00       	callq  4d <_ZSt34__uninitialized_move_if_noexcept_aIP9ComponentS1_SaIS0_EET0_T_S4_S3_RT1_+0x4d>
  4d:	48 83 c4 28          	add    $0x28,%rsp
  51:	5b                   	pop    %rbx
  52:	5d                   	pop    %rbp
  53:	c3                   	retq   

Disassembly of section .text._ZNSt16allocator_traitsISaI9ComponentEE7destroyIS0_EEvRS1_PT_:

0000000000000000 <_ZNSt16allocator_traitsISaI9ComponentEE7destroyIS0_EEvRS1_PT_>:
   0:	55                   	push   %rbp
   1:	48 89 e5             	mov    %rsp,%rbp
   4:	48 83 ec 10          	sub    $0x10,%rsp
   8:	48 89 7d f8          	mov    %rdi,-0x8(%rbp)
   c:	48 89 75 f0          	mov    %rsi,-0x10(%rbp)
  10:	48 8b 55 f0          	mov    -0x10(%rbp),%rdx
  14:	48 8b 45 f8          	mov    -0x8(%rbp),%rax
  18:	48 89 d6             	mov    %rdx,%rsi
  1b:	48 89 c7             	mov    %rax,%rdi
  1e:	e8 00 00 00 00       	callq  23 <_ZNSt16allocator_traitsISaI9ComponentEE7destroyIS0_EEvRS1_PT_+0x23>
  23:	90                   	nop
  24:	c9                   	leaveq 
  25:	c3                   	retq   

Disassembly of section .text._ZNSaI9ComponentEC2Ev:

0000000000000000 <_ZNSaI9ComponentEC1Ev>:
   0:	55                   	push   %rbp
   1:	48 89 e5             	mov    %rsp,%rbp
   4:	48 83 ec 10          	sub    $0x10,%rsp
   8:	48 89 7d f8          	mov    %rdi,-0x8(%rbp)
   c:	48 8b 45 f8          	mov    -0x8(%rbp),%rax
  10:	48 89 c7             	mov    %rax,%rdi
  13:	e8 00 00 00 00       	callq  18 <_ZNSaI9ComponentEC1Ev+0x18>
  18:	90                   	nop
  19:	c9                   	leaveq 
  1a:	c3                   	retq   

Disassembly of section .text._ZN9__gnu_cxx13new_allocatorI9ComponentED2Ev:

0000000000000000 <_ZN9__gnu_cxx13new_allocatorI9ComponentED1Ev>:
   0:	55                   	push   %rbp
   1:	48 89 e5             	mov    %rsp,%rbp
   4:	48 89 7d f8          	mov    %rdi,-0x8(%rbp)
   8:	90                   	nop
   9:	5d                   	pop    %rbp
   a:	c3                   	retq   

Disassembly of section .text._ZNSt16allocator_traitsISaI9ComponentEE10deallocateERS1_PS0_m:

0000000000000000 <_ZNSt16allocator_traitsISaI9ComponentEE10deallocateERS1_PS0_m>:
   0:	55                   	push   %rbp
   1:	48 89 e5             	mov    %rsp,%rbp
   4:	48 83 ec 20          	sub    $0x20,%rsp
   8:	48 89 7d f8          	mov    %rdi,-0x8(%rbp)
   c:	48 89 75 f0          	mov    %rsi,-0x10(%rbp)
  10:	48 89 55 e8          	mov    %rdx,-0x18(%rbp)
  14:	48 8b 55 e8          	mov    -0x18(%rbp),%rdx
  18:	48 8b 4d f0          	mov    -0x10(%rbp),%rcx
  1c:	48 8b 45 f8          	mov    -0x8(%rbp),%rax
  20:	48 89 ce             	mov    %rcx,%rsi
  23:	48 89 c7             	mov    %rax,%rdi
  26:	e8 00 00 00 00       	callq  2b <_ZNSt16allocator_traitsISaI9ComponentEE10deallocateERS1_PS0_m+0x2b>
  2b:	90                   	nop
  2c:	c9                   	leaveq 
  2d:	c3                   	retq   

Disassembly of section .text._ZNSt12_Destroy_auxILb0EE9__destroyIP9ComponentEEvT_S4_:

0000000000000000 <_ZNSt12_Destroy_auxILb0EE9__destroyIP9ComponentEEvT_S4_>:
   0:	55                   	push   %rbp
   1:	48 89 e5             	mov    %rsp,%rbp
   4:	48 83 ec 10          	sub    $0x10,%rsp
   8:	48 89 7d f8          	mov    %rdi,-0x8(%rbp)
   c:	48 89 75 f0          	mov    %rsi,-0x10(%rbp)
  10:	48 8b 45 f8          	mov    -0x8(%rbp),%rax
  14:	48 3b 45 f0          	cmp    -0x10(%rbp),%rax
  18:	74 1b                	je     35 <_ZNSt12_Destroy_auxILb0EE9__destroyIP9ComponentEEvT_S4_+0x35>
  1a:	48 8b 45 f8          	mov    -0x8(%rbp),%rax
  1e:	48 89 c7             	mov    %rax,%rdi
  21:	e8 00 00 00 00       	callq  26 <_ZNSt12_Destroy_auxILb0EE9__destroyIP9ComponentEEvT_S4_+0x26>
  26:	48 89 c7             	mov    %rax,%rdi
  29:	e8 00 00 00 00       	callq  2e <_ZNSt12_Destroy_auxILb0EE9__destroyIP9ComponentEEvT_S4_+0x2e>
  2e:	48 83 6d f8 80       	subq   $0xffffffffffffff80,-0x8(%rbp)
  33:	eb db                	jmp    10 <_ZNSt12_Destroy_auxILb0EE9__destroyIP9ComponentEEvT_S4_+0x10>
  35:	90                   	nop
  36:	c9                   	leaveq 
  37:	c3                   	retq   

Disassembly of section .text._ZNKSt6vectorI9ComponentSaIS0_EE8max_sizeEv:

0000000000000000 <_ZNKSt6vectorI9ComponentSaIS0_EE8max_sizeEv>:
   0:	55                   	push   %rbp
   1:	48 89 e5             	mov    %rsp,%rbp
   4:	48 83 ec 10          	sub    $0x10,%rsp
   8:	48 89 7d f8          	mov    %rdi,-0x8(%rbp)
   c:	48 8b 45 f8          	mov    -0x8(%rbp),%rax
  10:	48 89 c7             	mov    %rax,%rdi
  13:	e8 00 00 00 00       	callq  18 <_ZNKSt6vectorI9ComponentSaIS0_EE8max_sizeEv+0x18>
  18:	48 89 c7             	mov    %rax,%rdi
  1b:	e8 00 00 00 00       	callq  20 <_ZNKSt6vectorI9ComponentSaIS0_EE8max_sizeEv+0x20>
  20:	c9                   	leaveq 
  21:	c3                   	retq   

Disassembly of section .text._ZSt3maxImERKT_S2_S2_:

0000000000000000 <_ZSt3maxImERKT_S2_S2_>:
   0:	55                   	push   %rbp
   1:	48 89 e5             	mov    %rsp,%rbp
   4:	48 89 7d f8          	mov    %rdi,-0x8(%rbp)
   8:	48 89 75 f0          	mov    %rsi,-0x10(%rbp)
   c:	48 8b 45 f8          	mov    -0x8(%rbp),%rax
  10:	48 8b 10             	mov    (%rax),%rdx
  13:	48 8b 45 f0          	mov    -0x10(%rbp),%rax
  17:	48 8b 00             	mov    (%rax),%rax
  1a:	48 39 c2             	cmp    %rax,%rdx
  1d:	73 06                	jae    25 <_ZSt3maxImERKT_S2_S2_+0x25>
  1f:	48 8b 45 f0          	mov    -0x10(%rbp),%rax
  23:	eb 04                	jmp    29 <_ZSt3maxImERKT_S2_S2_+0x29>
  25:	48 8b 45 f8          	mov    -0x8(%rbp),%rax
  29:	5d                   	pop    %rbp
  2a:	c3                   	retq   

Disassembly of section .text._ZNSt16allocator_traitsISaI9ComponentEE8allocateERS1_m:

0000000000000000 <_ZNSt16allocator_traitsISaI9ComponentEE8allocateERS1_m>:
   0:	55                   	push   %rbp
   1:	48 89 e5             	mov    %rsp,%rbp
   4:	48 83 ec 10          	sub    $0x10,%rsp
   8:	48 89 7d f8          	mov    %rdi,-0x8(%rbp)
   c:	48 89 75 f0          	mov    %rsi,-0x10(%rbp)
  10:	48 8b 4d f0          	mov    -0x10(%rbp),%rcx
  14:	48 8b 45 f8          	mov    -0x8(%rbp),%rax
  18:	ba 00 00 00 00       	mov    $0x0,%edx
  1d:	48 89 ce             	mov    %rcx,%rsi
  20:	48 89 c7             	mov    %rax,%rdi
  23:	e8 00 00 00 00       	callq  28 <_ZNSt16allocator_traitsISaI9ComponentEE8allocateERS1_m+0x28>
  28:	c9                   	leaveq 
  29:	c3                   	retq   

Disassembly of section .text._ZSt32__make_move_if_noexcept_iteratorIP9ComponentSt13move_iteratorIS1_EET0_T_:

0000000000000000 <_ZSt32__make_move_if_noexcept_iteratorIP9ComponentSt13move_iteratorIS1_EET0_T_>:
   0:	55                   	push   %rbp
   1:	48 89 e5             	mov    %rsp,%rbp
   4:	48 83 ec 20          	sub    $0x20,%rsp
   8:	48 89 7d e8          	mov    %rdi,-0x18(%rbp)
   c:	64 48 8b 04 25 28 00 	mov    %fs:0x28,%rax
  13:	00 00 
  15:	48 89 45 f8          	mov    %rax,-0x8(%rbp)
  19:	31 c0                	xor    %eax,%eax
  1b:	48 8b 55 e8          	mov    -0x18(%rbp),%rdx
  1f:	48 8d 45 f0          	lea    -0x10(%rbp),%rax
  23:	48 89 d6             	mov    %rdx,%rsi
  26:	48 89 c7             	mov    %rax,%rdi
  29:	e8 00 00 00 00       	callq  2e <_ZSt32__make_move_if_noexcept_iteratorIP9ComponentSt13move_iteratorIS1_EET0_T_+0x2e>
  2e:	48 8b 45 f0          	mov    -0x10(%rbp),%rax
  32:	48 8b 4d f8          	mov    -0x8(%rbp),%rcx
  36:	64 48 33 0c 25 28 00 	xor    %fs:0x28,%rcx
  3d:	00 00 
  3f:	74 05                	je     46 <_ZSt32__make_move_if_noexcept_iteratorIP9ComponentSt13move_iteratorIS1_EET0_T_+0x46>
  41:	e8 00 00 00 00       	callq  46 <_ZSt32__make_move_if_noexcept_iteratorIP9ComponentSt13move_iteratorIS1_EET0_T_+0x46>
  46:	c9                   	leaveq 
  47:	c3                   	retq   

Disassembly of section .text._ZSt22__uninitialized_copy_aISt13move_iteratorIP9ComponentES2_S1_ET0_T_S5_S4_RSaIT1_E:

0000000000000000 <_ZSt22__uninitialized_copy_aISt13move_iteratorIP9ComponentES2_S1_ET0_T_S5_S4_RSaIT1_E>:
   0:	55                   	push   %rbp
   1:	48 89 e5             	mov    %rsp,%rbp
   4:	48 83 ec 20          	sub    $0x20,%rsp
   8:	48 89 7d f0          	mov    %rdi,-0x10(%rbp)
   c:	48 89 75 e0          	mov    %rsi,-0x20(%rbp)
  10:	48 89 55 e8          	mov    %rdx,-0x18(%rbp)
  14:	48 89 4d f8          	mov    %rcx,-0x8(%rbp)
  18:	48 8b 55 e8          	mov    -0x18(%rbp),%rdx
  1c:	48 8b 4d e0          	mov    -0x20(%rbp),%rcx
  20:	48 8b 45 f0          	mov    -0x10(%rbp),%rax
  24:	48 89 ce             	mov    %rcx,%rsi
  27:	48 89 c7             	mov    %rax,%rdi
  2a:	e8 00 00 00 00       	callq  2f <_ZSt22__uninitialized_copy_aISt13move_iteratorIP9ComponentES2_S1_ET0_T_S5_S4_RSaIT1_E+0x2f>
  2f:	c9                   	leaveq 
  30:	c3                   	retq   

Disassembly of section .text._ZN9__gnu_cxx13new_allocatorI9ComponentE7destroyIS1_EEvPT_:

0000000000000000 <_ZN9__gnu_cxx13new_allocatorI9ComponentE7destroyIS1_EEvPT_>:
   0:	55                   	push   %rbp
   1:	48 89 e5             	mov    %rsp,%rbp
   4:	48 83 ec 10          	sub    $0x10,%rsp
   8:	48 89 7d f8          	mov    %rdi,-0x8(%rbp)
   c:	48 89 75 f0          	mov    %rsi,-0x10(%rbp)
  10:	48 8b 45 f0          	mov    -0x10(%rbp),%rax
  14:	48 89 c7             	mov    %rax,%rdi
  17:	e8 00 00 00 00       	callq  1c <_ZN9__gnu_cxx13new_allocatorI9ComponentE7destroyIS1_EEvPT_+0x1c>
  1c:	90                   	nop
  1d:	c9                   	leaveq 
  1e:	c3                   	retq   

Disassembly of section .text._ZN9__gnu_cxx13new_allocatorI9ComponentEC2Ev:

0000000000000000 <_ZN9__gnu_cxx13new_allocatorI9ComponentEC1Ev>:
   0:	55                   	push   %rbp
   1:	48 89 e5             	mov    %rsp,%rbp
   4:	48 89 7d f8          	mov    %rdi,-0x8(%rbp)
   8:	90                   	nop
   9:	5d                   	pop    %rbp
   a:	c3                   	retq   

Disassembly of section .text._ZN9__gnu_cxx13new_allocatorI9ComponentE10deallocateEPS1_m:

0000000000000000 <_ZN9__gnu_cxx13new_allocatorI9ComponentE10deallocateEPS1_m>:
   0:	55                   	push   %rbp
   1:	48 89 e5             	mov    %rsp,%rbp
   4:	48 83 ec 20          	sub    $0x20,%rsp
   8:	48 89 7d f8          	mov    %rdi,-0x8(%rbp)
   c:	48 89 75 f0          	mov    %rsi,-0x10(%rbp)
  10:	48 89 55 e8          	mov    %rdx,-0x18(%rbp)
  14:	48 8b 45 f0          	mov    -0x10(%rbp),%rax
  18:	48 89 c7             	mov    %rax,%rdi
  1b:	e8 00 00 00 00       	callq  20 <_ZN9__gnu_cxx13new_allocatorI9ComponentE10deallocateEPS1_m+0x20>
  20:	90                   	nop
  21:	c9                   	leaveq 
  22:	c3                   	retq   

Disassembly of section .text._ZSt11__addressofI9ComponentEPT_RS1_:

0000000000000000 <_ZSt11__addressofI9ComponentEPT_RS1_>:
   0:	55                   	push   %rbp
   1:	48 89 e5             	mov    %rsp,%rbp
   4:	48 89 7d f8          	mov    %rdi,-0x8(%rbp)
   8:	48 8b 45 f8          	mov    -0x8(%rbp),%rax
   c:	5d                   	pop    %rbp
   d:	c3                   	retq   

Disassembly of section .text._ZSt8_DestroyI9ComponentEvPT_:

0000000000000000 <_ZSt8_DestroyI9ComponentEvPT_>:
   0:	55                   	push   %rbp
   1:	48 89 e5             	mov    %rsp,%rbp
   4:	48 83 ec 10          	sub    $0x10,%rsp
   8:	48 89 7d f8          	mov    %rdi,-0x8(%rbp)
   c:	48 8b 45 f8          	mov    -0x8(%rbp),%rax
  10:	48 89 c7             	mov    %rax,%rdi
  13:	e8 00 00 00 00       	callq  18 <_ZSt8_DestroyI9ComponentEvPT_+0x18>
  18:	90                   	nop
  19:	c9                   	leaveq 
  1a:	c3                   	retq   

Disassembly of section .text._ZNSt16allocator_traitsISaI9ComponentEE8max_sizeERKS1_:

0000000000000000 <_ZNSt16allocator_traitsISaI9ComponentEE8max_sizeERKS1_>:
   0:	55                   	push   %rbp
   1:	48 89 e5             	mov    %rsp,%rbp
   4:	48 83 ec 10          	sub    $0x10,%rsp
   8:	48 89 7d f8          	mov    %rdi,-0x8(%rbp)
   c:	48 8b 45 f8          	mov    -0x8(%rbp),%rax
  10:	48 89 c7             	mov    %rax,%rdi
  13:	e8 00 00 00 00       	callq  18 <_ZNSt16allocator_traitsISaI9ComponentEE8max_sizeERKS1_+0x18>
  18:	c9                   	leaveq 
  19:	c3                   	retq   

Disassembly of section .text._ZNKSt12_Vector_baseI9ComponentSaIS0_EE19_M_get_Tp_allocatorEv:

0000000000000000 <_ZNKSt12_Vector_baseI9ComponentSaIS0_EE19_M_get_Tp_allocatorEv>:
   0:	55                   	push   %rbp
   1:	48 89 e5             	mov    %rsp,%rbp
   4:	48 89 7d f8          	mov    %rdi,-0x8(%rbp)
   8:	48 8b 45 f8          	mov    -0x8(%rbp),%rax
   c:	5d                   	pop    %rbp
   d:	c3                   	retq   

Disassembly of section .text._ZN9__gnu_cxx13new_allocatorI9ComponentE8allocateEmPKv:

0000000000000000 <_ZN9__gnu_cxx13new_allocatorI9ComponentE8allocateEmPKv>:
   0:	55                   	push   %rbp
   1:	48 89 e5             	mov    %rsp,%rbp
   4:	48 83 ec 20          	sub    $0x20,%rsp
   8:	48 89 7d f8          	mov    %rdi,-0x8(%rbp)
   c:	48 89 75 f0          	mov    %rsi,-0x10(%rbp)
  10:	48 89 55 e8          	mov    %rdx,-0x18(%rbp)
  14:	48 8b 45 f8          	mov    -0x8(%rbp),%rax
  18:	48 89 c7             	mov    %rax,%rdi
  1b:	e8 00 00 00 00       	callq  20 <_ZN9__gnu_cxx13new_allocatorI9ComponentE8allocateEmPKv+0x20>
  20:	48 3b 45 f0          	cmp    -0x10(%rbp),%rax
  24:	0f 92 c0             	setb   %al
  27:	84 c0                	test   %al,%al
  29:	74 05                	je     30 <_ZN9__gnu_cxx13new_allocatorI9ComponentE8allocateEmPKv+0x30>
  2b:	e8 00 00 00 00       	callq  30 <_ZN9__gnu_cxx13new_allocatorI9ComponentE8allocateEmPKv+0x30>
  30:	48 8b 45 f0          	mov    -0x10(%rbp),%rax
  34:	48 c1 e0 07          	shl    $0x7,%rax
  38:	48 89 c7             	mov    %rax,%rdi
  3b:	e8 00 00 00 00       	callq  40 <_ZN9__gnu_cxx13new_allocatorI9ComponentE8allocateEmPKv+0x40>
  40:	c9                   	leaveq 
  41:	c3                   	retq   

Disassembly of section .text._ZNSt13move_iteratorIP9ComponentEC2ES1_:

0000000000000000 <_ZNSt13move_iteratorIP9ComponentEC1ES1_>:
   0:	55                   	push   %rbp
   1:	48 89 e5             	mov    %rsp,%rbp
   4:	48 89 7d f8          	mov    %rdi,-0x8(%rbp)
   8:	48 89 75 f0          	mov    %rsi,-0x10(%rbp)
   c:	48 8b 45 f8          	mov    -0x8(%rbp),%rax
  10:	48 8b 55 f0          	mov    -0x10(%rbp),%rdx
  14:	48 89 10             	mov    %rdx,(%rax)
  17:	90                   	nop
  18:	5d                   	pop    %rbp
  19:	c3                   	retq   

Disassembly of section .text._ZSt18uninitialized_copyISt13move_iteratorIP9ComponentES2_ET0_T_S5_S4_:

0000000000000000 <_ZSt18uninitialized_copyISt13move_iteratorIP9ComponentES2_ET0_T_S5_S4_>:
   0:	55                   	push   %rbp
   1:	48 89 e5             	mov    %rsp,%rbp
   4:	48 83 ec 30          	sub    $0x30,%rsp
   8:	48 89 7d e0          	mov    %rdi,-0x20(%rbp)
   c:	48 89 75 d0          	mov    %rsi,-0x30(%rbp)
  10:	48 89 55 d8          	mov    %rdx,-0x28(%rbp)
  14:	c6 45 ff 01          	movb   $0x1,-0x1(%rbp)
  18:	48 8b 55 d8          	mov    -0x28(%rbp),%rdx
  1c:	48 8b 4d d0          	mov    -0x30(%rbp),%rcx
  20:	48 8b 45 e0          	mov    -0x20(%rbp),%rax
  24:	48 89 ce             	mov    %rcx,%rsi
  27:	48 89 c7             	mov    %rax,%rdi
  2a:	e8 00 00 00 00       	callq  2f <_ZSt18uninitialized_copyISt13move_iteratorIP9ComponentES2_ET0_T_S5_S4_+0x2f>
  2f:	c9                   	leaveq 
  30:	c3                   	retq   

Disassembly of section .text._ZNK9__gnu_cxx13new_allocatorI9ComponentE8max_sizeEv:

0000000000000000 <_ZNK9__gnu_cxx13new_allocatorI9ComponentE8max_sizeEv>:
   0:	55                   	push   %rbp
   1:	48 89 e5             	mov    %rsp,%rbp
   4:	48 89 7d f8          	mov    %rdi,-0x8(%rbp)
   8:	48 b8 ff ff ff ff ff 	movabs $0x1ffffffffffffff,%rax
   f:	ff ff 01 
  12:	5d                   	pop    %rbp
  13:	c3                   	retq   

Disassembly of section .text._ZNSt20__uninitialized_copyILb0EE13__uninit_copyISt13move_iteratorIP9ComponentES4_EET0_T_S7_S6_:

0000000000000000 <_ZNSt20__uninitialized_copyILb0EE13__uninit_copyISt13move_iteratorIP9ComponentES4_EET0_T_S7_S6_>:
   0:	55                   	push   %rbp
   1:	48 89 e5             	mov    %rsp,%rbp
   4:	53                   	push   %rbx
   5:	48 83 ec 38          	sub    $0x38,%rsp
   9:	48 89 7d d0          	mov    %rdi,-0x30(%rbp)
   d:	48 89 75 c0          	mov    %rsi,-0x40(%rbp)
  11:	48 89 55 c8          	mov    %rdx,-0x38(%rbp)
  15:	48 8b 45 c8          	mov    -0x38(%rbp),%rax
  19:	48 89 45 e8          	mov    %rax,-0x18(%rbp)
  1d:	48 8d 55 c0          	lea    -0x40(%rbp),%rdx
  21:	48 8d 45 d0          	lea    -0x30(%rbp),%rax
  25:	48 89 d6             	mov    %rdx,%rsi
  28:	48 89 c7             	mov    %rax,%rdi
  2b:	e8 00 00 00 00       	callq  30 <_ZNSt20__uninitialized_copyILb0EE13__uninit_copyISt13move_iteratorIP9ComponentES4_EET0_T_S7_S6_+0x30>
  30:	84 c0                	test   %al,%al
  32:	74 39                	je     6d <_ZNSt20__uninitialized_copyILb0EE13__uninit_copyISt13move_iteratorIP9ComponentES4_EET0_T_S7_S6_+0x6d>
  34:	48 8d 45 d0          	lea    -0x30(%rbp),%rax
  38:	48 89 c7             	mov    %rax,%rdi
  3b:	e8 00 00 00 00       	callq  40 <_ZNSt20__uninitialized_copyILb0EE13__uninit_copyISt13move_iteratorIP9ComponentES4_EET0_T_S7_S6_+0x40>
  40:	48 89 c3             	mov    %rax,%rbx
  43:	48 8b 45 e8          	mov    -0x18(%rbp),%rax
  47:	48 89 c7             	mov    %rax,%rdi
  4a:	e8 00 00 00 00       	callq  4f <_ZNSt20__uninitialized_copyILb0EE13__uninit_copyISt13move_iteratorIP9ComponentES4_EET0_T_S7_S6_+0x4f>
  4f:	48 89 de             	mov    %rbx,%rsi
  52:	48 89 c7             	mov    %rax,%rdi
  55:	e8 00 00 00 00       	callq  5a <_ZNSt20__uninitialized_copyILb0EE13__uninit_copyISt13move_iteratorIP9ComponentES4_EET0_T_S7_S6_+0x5a>
  5a:	48 8d 45 d0          	lea    -0x30(%rbp),%rax
  5e:	48 89 c7             	mov    %rax,%rdi
  61:	e8 00 00 00 00       	callq  66 <_ZNSt20__uninitialized_copyILb0EE13__uninit_copyISt13move_iteratorIP9ComponentES4_EET0_T_S7_S6_+0x66>
  66:	48 83 6d e8 80       	subq   $0xffffffffffffff80,-0x18(%rbp)
  6b:	eb b0                	jmp    1d <_ZNSt20__uninitialized_copyILb0EE13__uninit_copyISt13move_iteratorIP9ComponentES4_EET0_T_S7_S6_+0x1d>
  6d:	48 8b 45 e8          	mov    -0x18(%rbp),%rax
  71:	eb 33                	jmp    a6 <_ZNSt20__uninitialized_copyILb0EE13__uninit_copyISt13move_iteratorIP9ComponentES4_EET0_T_S7_S6_+0xa6>
  73:	48 89 c7             	mov    %rax,%rdi
  76:	e8 00 00 00 00       	callq  7b <_ZNSt20__uninitialized_copyILb0EE13__uninit_copyISt13move_iteratorIP9ComponentES4_EET0_T_S7_S6_+0x7b>
  7b:	48 8b 55 e8          	mov    -0x18(%rbp),%rdx
  7f:	48 8b 45 c8          	mov    -0x38(%rbp),%rax
  83:	48 89 d6             	mov    %rdx,%rsi
  86:	48 89 c7             	mov    %rax,%rdi
  89:	e8 00 00 00 00       	callq  8e <_ZNSt20__uninitialized_copyILb0EE13__uninit_copyISt13move_iteratorIP9ComponentES4_EET0_T_S7_S6_+0x8e>
  8e:	e8 00 00 00 00       	callq  93 <_ZNSt20__uninitialized_copyILb0EE13__uninit_copyISt13move_iteratorIP9ComponentES4_EET0_T_S7_S6_+0x93>
  93:	48 89 c3             	mov    %rax,%rbx
  96:	e8 00 00 00 00       	callq  9b <_ZNSt20__uninitialized_copyILb0EE13__uninit_copyISt13move_iteratorIP9ComponentES4_EET0_T_S7_S6_+0x9b>
  9b:	48 89 d8             	mov    %rbx,%rax
  9e:	48 89 c7             	mov    %rax,%rdi
  a1:	e8 00 00 00 00       	callq  a6 <_ZNSt20__uninitialized_copyILb0EE13__uninit_copyISt13move_iteratorIP9ComponentES4_EET0_T_S7_S6_+0xa6>
  a6:	48 83 c4 38          	add    $0x38,%rsp
  aa:	5b                   	pop    %rbx
  ab:	5d                   	pop    %rbp
  ac:	c3                   	retq   

Disassembly of section .text._ZStneIP9ComponentEbRKSt13move_iteratorIT_ES6_:

0000000000000000 <_ZStneIP9ComponentEbRKSt13move_iteratorIT_ES6_>:
   0:	55                   	push   %rbp
   1:	48 89 e5             	mov    %rsp,%rbp
   4:	48 83 ec 10          	sub    $0x10,%rsp
   8:	48 89 7d f8          	mov    %rdi,-0x8(%rbp)
   c:	48 89 75 f0          	mov    %rsi,-0x10(%rbp)
  10:	48 8b 55 f0          	mov    -0x10(%rbp),%rdx
  14:	48 8b 45 f8          	mov    -0x8(%rbp),%rax
  18:	48 89 d6             	mov    %rdx,%rsi
  1b:	48 89 c7             	mov    %rax,%rdi
  1e:	e8 00 00 00 00       	callq  23 <_ZStneIP9ComponentEbRKSt13move_iteratorIT_ES6_+0x23>
  23:	83 f0 01             	xor    $0x1,%eax
  26:	c9                   	leaveq 
  27:	c3                   	retq   

Disassembly of section .text._ZNSt13move_iteratorIP9ComponentEppEv:

0000000000000000 <_ZNSt13move_iteratorIP9ComponentEppEv>:
   0:	55                   	push   %rbp
   1:	48 89 e5             	mov    %rsp,%rbp
   4:	48 89 7d f8          	mov    %rdi,-0x8(%rbp)
   8:	48 8b 45 f8          	mov    -0x8(%rbp),%rax
   c:	48 8b 00             	mov    (%rax),%rax
   f:	48 8d 90 80 00 00 00 	lea    0x80(%rax),%rdx
  16:	48 8b 45 f8          	mov    -0x8(%rbp),%rax
  1a:	48 89 10             	mov    %rdx,(%rax)
  1d:	48 8b 45 f8          	mov    -0x8(%rbp),%rax
  21:	5d                   	pop    %rbp
  22:	c3                   	retq   

Disassembly of section .text._ZNKSt13move_iteratorIP9ComponentEdeEv:

0000000000000000 <_ZNKSt13move_iteratorIP9ComponentEdeEv>:
   0:	55                   	push   %rbp
   1:	48 89 e5             	mov    %rsp,%rbp
   4:	48 89 7d f8          	mov    %rdi,-0x8(%rbp)
   8:	48 8b 45 f8          	mov    -0x8(%rbp),%rax
   c:	48 8b 00             	mov    (%rax),%rax
   f:	5d                   	pop    %rbp
  10:	c3                   	retq   

Disassembly of section .text._ZSt7forwardI9ComponentEOT_RNSt16remove_referenceIS1_E4typeE:

0000000000000000 <_ZSt7forwardI9ComponentEOT_RNSt16remove_referenceIS1_E4typeE>:
   0:	55                   	push   %rbp
   1:	48 89 e5             	mov    %rsp,%rbp
   4:	48 89 7d f8          	mov    %rdi,-0x8(%rbp)
   8:	48 8b 45 f8          	mov    -0x8(%rbp),%rax
   c:	5d                   	pop    %rbp
   d:	c3                   	retq   

Disassembly of section .text._ZN9ComponentC2EOS_:

0000000000000000 <_ZN9ComponentC1EOS_>:
   0:	55                   	push   %rbp
   1:	48 89 e5             	mov    %rsp,%rbp
   4:	48 83 ec 10          	sub    $0x10,%rsp
   8:	48 89 7d f8          	mov    %rdi,-0x8(%rbp)
   c:	48 89 75 f0          	mov    %rsi,-0x10(%rbp)
  10:	48 8b 45 f0          	mov    -0x10(%rbp),%rax
  14:	48 8b 10             	mov    (%rax),%rdx
  17:	48 8b 45 f8          	mov    -0x8(%rbp),%rax
  1b:	48 89 10             	mov    %rdx,(%rax)
  1e:	48 8b 45 f0          	mov    -0x10(%rbp),%rax
  22:	f3 0f 10 40 08       	movss  0x8(%rax),%xmm0
  27:	48 8b 45 f8          	mov    -0x8(%rbp),%rax
  2b:	f3 0f 11 40 08       	movss  %xmm0,0x8(%rax)
  30:	48 8b 45 f0          	mov    -0x10(%rbp),%rax
  34:	f3 0f 10 40 0c       	movss  0xc(%rax),%xmm0
  39:	48 8b 45 f8          	mov    -0x8(%rbp),%rax
  3d:	f3 0f 11 40 0c       	movss  %xmm0,0xc(%rax)
  42:	48 8b 45 f0          	mov    -0x10(%rbp),%rax
  46:	f3 0f 10 40 10       	movss  0x10(%rax),%xmm0
  4b:	48 8b 45 f8          	mov    -0x8(%rbp),%rax
  4f:	f3 0f 11 40 10       	movss  %xmm0,0x10(%rax)
  54:	48 8b 45 f0          	mov    -0x10(%rbp),%rax
  58:	f3 0f 10 40 14       	movss  0x14(%rax),%xmm0
  5d:	48 8b 45 f8          	mov    -0x8(%rbp),%rax
  61:	f3 0f 11 40 14       	movss  %xmm0,0x14(%rax)
  66:	48 8b 45 f0          	mov    -0x10(%rbp),%rax
  6a:	48 8d 50 18          	lea    0x18(%rax),%rdx
  6e:	48 8b 45 f8          	mov    -0x8(%rbp),%rax
  72:	48 83 c0 18          	add    $0x18,%rax
  76:	48 89 d6             	mov    %rdx,%rsi
  79:	48 89 c7             	mov    %rax,%rdi
  7c:	e8 00 00 00 00       	callq  81 <_ZN9ComponentC1EOS_+0x81>
  81:	48 8b 45 f0          	mov    -0x10(%rbp),%rax
  85:	48 8d 50 38          	lea    0x38(%rax),%rdx
  89:	48 8b 45 f8          	mov    -0x8(%rbp),%rax
  8d:	48 83 c0 38          	add    $0x38,%rax
  91:	48 89 d6             	mov    %rdx,%rsi
  94:	48 89 c7             	mov    %rax,%rdi
  97:	e8 00 00 00 00       	callq  9c <_ZN9ComponentC1EOS_+0x9c>
  9c:	48 8b 45 f0          	mov    -0x10(%rbp),%rax
  a0:	48 8d 50 58          	lea    0x58(%rax),%rdx
  a4:	48 8b 45 f8          	mov    -0x8(%rbp),%rax
  a8:	48 83 c0 58          	add    $0x58,%rax
  ac:	48 89 d6             	mov    %rdx,%rsi
  af:	48 89 c7             	mov    %rax,%rdi
  b2:	e8 00 00 00 00       	callq  b7 <_ZN9ComponentC1EOS_+0xb7>
  b7:	48 8b 45 f0          	mov    -0x10(%rbp),%rax
  bb:	0f b6 50 78          	movzbl 0x78(%rax),%edx
  bf:	48 8b 45 f8          	mov    -0x8(%rbp),%rax
  c3:	88 50 78             	mov    %dl,0x78(%rax)
  c6:	48 8b 45 f0          	mov    -0x10(%rbp),%rax
  ca:	8b 50 7c             	mov    0x7c(%rax),%edx
  cd:	48 8b 45 f8          	mov    -0x8(%rbp),%rax
  d1:	89 50 7c             	mov    %edx,0x7c(%rax)
  d4:	90                   	nop
  d5:	c9                   	leaveq 
  d6:	c3                   	retq   

Disassembly of section .text._ZSt10_ConstructI9ComponentJS0_EEvPT_DpOT0_:

0000000000000000 <_ZSt10_ConstructI9ComponentIS0_EEvPT_DpOT0_>:
   0:	55                   	push   %rbp
   1:	48 89 e5             	mov    %rsp,%rbp
   4:	53                   	push   %rbx
   5:	48 83 ec 18          	sub    $0x18,%rsp
   9:	48 89 7d e8          	mov    %rdi,-0x18(%rbp)
   d:	48 89 75 e0          	mov    %rsi,-0x20(%rbp)
  11:	48 8b 45 e0          	mov    -0x20(%rbp),%rax
  15:	48 89 c7             	mov    %rax,%rdi
  18:	e8 00 00 00 00       	callq  1d <_ZSt10_ConstructI9ComponentIS0_EEvPT_DpOT0_+0x1d>
  1d:	48 89 c3             	mov    %rax,%rbx
  20:	48 8b 45 e8          	mov    -0x18(%rbp),%rax
  24:	48 89 c6             	mov    %rax,%rsi
  27:	bf 80 00 00 00       	mov    $0x80,%edi
  2c:	e8 00 00 00 00       	callq  31 <_ZSt10_ConstructI9ComponentIS0_EEvPT_DpOT0_+0x31>
  31:	48 85 c0             	test   %rax,%rax
  34:	74 0b                	je     41 <_ZSt10_ConstructI9ComponentIS0_EEvPT_DpOT0_+0x41>
  36:	48 89 de             	mov    %rbx,%rsi
  39:	48 89 c7             	mov    %rax,%rdi
  3c:	e8 00 00 00 00       	callq  41 <_ZSt10_ConstructI9ComponentIS0_EEvPT_DpOT0_+0x41>
  41:	90                   	nop
  42:	48 83 c4 18          	add    $0x18,%rsp
  46:	5b                   	pop    %rbx
  47:	5d                   	pop    %rbp
  48:	c3                   	retq   

Disassembly of section .text._ZSteqIP9ComponentEbRKSt13move_iteratorIT_ES6_:

0000000000000000 <_ZSteqIP9ComponentEbRKSt13move_iteratorIT_ES6_>:
   0:	55                   	push   %rbp
   1:	48 89 e5             	mov    %rsp,%rbp
   4:	53                   	push   %rbx
   5:	48 83 ec 18          	sub    $0x18,%rsp
   9:	48 89 7d e8          	mov    %rdi,-0x18(%rbp)
   d:	48 89 75 e0          	mov    %rsi,-0x20(%rbp)
  11:	48 8b 45 e8          	mov    -0x18(%rbp),%rax
  15:	48 89 c7             	mov    %rax,%rdi
  18:	e8 00 00 00 00       	callq  1d <_ZSteqIP9ComponentEbRKSt13move_iteratorIT_ES6_+0x1d>
  1d:	48 89 c3             	mov    %rax,%rbx
  20:	48 8b 45 e0          	mov    -0x20(%rbp),%rax
  24:	48 89 c7             	mov    %rax,%rdi
  27:	e8 00 00 00 00       	callq  2c <_ZSteqIP9ComponentEbRKSt13move_iteratorIT_ES6_+0x2c>
  2c:	48 39 c3             	cmp    %rax,%rbx
  2f:	0f 94 c0             	sete   %al
  32:	48 83 c4 18          	add    $0x18,%rsp
  36:	5b                   	pop    %rbx
  37:	5d                   	pop    %rbp
  38:	c3                   	retq   

Disassembly of section .text._ZNKSt13move_iteratorIP9ComponentE4baseEv:

0000000000000000 <_ZNKSt13move_iteratorIP9ComponentE4baseEv>:
   0:	55                   	push   %rbp
   1:	48 89 e5             	mov    %rsp,%rbp
   4:	48 89 7d f8          	mov    %rdi,-0x8(%rbp)
   8:	48 8b 45 f8          	mov    -0x8(%rbp),%rax
   c:	48 8b 00             	mov    (%rax),%rax
   f:	5d                   	pop    %rbp
  10:	c3                   	retq   
